Archive member included to satisfy reference by file (symbol)

/opt/Atollic_TrueSTUDIO_for_STM32_x86_64_9.1.0/ARMTools/bin/../lib/gcc/arm-atollic-eabi/6.3.1/armv7e-m/fpu/libgcc.a(_arm_addsubdf3.o)
                              /tmp/cceRjJvB.ltrans0.ltrans.o (__aeabi_dsub)
/opt/Atollic_TrueSTUDIO_for_STM32_x86_64_9.1.0/ARMTools/bin/../lib/gcc/arm-atollic-eabi/6.3.1/armv7e-m/fpu/libgcc.a(_arm_muldivdf3.o)
                              /tmp/cceRjJvB.ltrans0.ltrans.o (__aeabi_dmul)
/opt/Atollic_TrueSTUDIO_for_STM32_x86_64_9.1.0/ARMTools/bin/../lib/gcc/arm-atollic-eabi/6.3.1/armv7e-m/fpu/libgcc.a(_arm_fixdfsi.o)
                              /tmp/cceRjJvB.ltrans0.ltrans.o (__aeabi_d2iz)
/opt/Atollic_TrueSTUDIO_for_STM32_x86_64_9.1.0/ARMTools/bin/../lib/gcc/arm-atollic-eabi/6.3.1/armv7e-m/fpu/libgcc.a(_arm_truncdfsf2.o)
                              /tmp/cceRjJvB.ltrans0.ltrans.o (__aeabi_d2f)
/opt/Atollic_TrueSTUDIO_for_STM32_x86_64_9.1.0/ARMTools/bin/../lib/gcc/arm-atollic-eabi/6.3.1/armv7e-m/fpu/libgcc.a(_aeabi_uldivmod.o)
                              /tmp/cceRjJvB.ltrans0.ltrans.o (__aeabi_uldivmod)
/opt/Atollic_TrueSTUDIO_for_STM32_x86_64_9.1.0/ARMTools/bin/../lib/gcc/arm-atollic-eabi/6.3.1/armv7e-m/fpu/libgcc.a(_udivmoddi4.o)
                              /opt/Atollic_TrueSTUDIO_for_STM32_x86_64_9.1.0/ARMTools/bin/../lib/gcc/arm-atollic-eabi/6.3.1/armv7e-m/fpu/libgcc.a(_aeabi_uldivmod.o) (__udivmoddi4)
/opt/Atollic_TrueSTUDIO_for_STM32_x86_64_9.1.0/ARMTools/bin/../lib/gcc/arm-atollic-eabi/6.3.1/armv7e-m/fpu/libgcc.a(_dvmd_tls.o)
                              /opt/Atollic_TrueSTUDIO_for_STM32_x86_64_9.1.0/ARMTools/bin/../lib/gcc/arm-atollic-eabi/6.3.1/armv7e-m/fpu/libgcc.a(_aeabi_uldivmod.o) (__aeabi_ldiv0)
/opt/Atollic_TrueSTUDIO_for_STM32_x86_64_9.1.0/ARMTools/bin/../lib/gcc/arm-atollic-eabi/6.3.1/../../../../arm-atollic-eabi/lib/armv7e-m/fpu/libc.a(lib_a-memcpy-stub.o)
                              /tmp/cceRjJvB.ltrans0.ltrans.o (memcpy)
/opt/Atollic_TrueSTUDIO_for_STM32_x86_64_9.1.0/ARMTools/bin/../lib/gcc/arm-atollic-eabi/6.3.1/../../../../arm-atollic-eabi/lib/armv7e-m/fpu/libc.a(lib_a-memset.o)
                              /tmp/cceRjJvB.ltrans1.ltrans.o (memset)
/opt/Atollic_TrueSTUDIO_for_STM32_x86_64_9.1.0/ARMTools/bin/../lib/gcc/arm-atollic-eabi/6.3.1/../../../../arm-atollic-eabi/lib/armv7e-m/fpu/libc.a(lib_a-strcmp.o)
                              /tmp/cceRjJvB.ltrans3.ltrans.o (strcmp)
/opt/Atollic_TrueSTUDIO_for_STM32_x86_64_9.1.0/ARMTools/bin/../lib/gcc/arm-atollic-eabi/6.3.1/../../../../arm-atollic-eabi/lib/armv7e-m/fpu/libc.a(lib_a-strncmp.o)
                              /tmp/cceRjJvB.ltrans1.ltrans.o (strncmp)
/opt/Atollic_TrueSTUDIO_for_STM32_x86_64_9.1.0/ARMTools/bin/../lib/gcc/arm-atollic-eabi/6.3.1/../../../../arm-atollic-eabi/lib/armv7e-m/fpu/libc.a(lib_a-strncpy.o)
                              /tmp/cceRjJvB.ltrans1.ltrans.o (strncpy)

Discarded input sections

 .data          0x0000000000000000        0x0 build/obj/crt0_v7m.o
 .bss           0x0000000000000000        0x0 build/obj/crt0_v7m.o
 .data          0x0000000000000000        0x0 build/obj/vectors.o
 .bss           0x0000000000000000        0x0 build/obj/vectors.o
 .data          0x0000000000000000        0x0 build/obj/chcoreasm_v7m.o
 .bss           0x0000000000000000        0x0 build/obj/chcoreasm_v7m.o
 .text          0x0000000000000000        0x0 build/obj/crt1.o (symbol from plugin)
 .text          0x0000000000000000        0x0 /tmp/cceRjJvB.ltrans0.ltrans.o
 .data          0x0000000000000000        0x0 /tmp/cceRjJvB.ltrans0.ltrans.o
 .bss           0x0000000000000000        0x0 /tmp/cceRjJvB.ltrans0.ltrans.o
 .data.SystemCoreClock
                0x0000000000000000        0x4 /tmp/cceRjJvB.ltrans0.ltrans.o
 .bss._pal_events
                0x0000000000000000        0x0 /tmp/cceRjJvB.ltrans0.ltrans.o
 .rodata.default_config.lto_priv.151
                0x0000000000000000        0xc /tmp/cceRjJvB.ltrans0.ltrans.o
 .text.l3gd20Stop
                0x0000000000000000       0x3e /tmp/cceRjJvB.ltrans0.ltrans.o
 .text.chsnprintf
                0x0000000000000000       0x66 /tmp/cceRjJvB.ltrans0.ltrans.o
 .text._writes  0x0000000000000000       0x56 /tmp/cceRjJvB.ltrans0.ltrans.o
 .text._reads   0x0000000000000000       0x56 /tmp/cceRjJvB.ltrans0.ltrans.o
 .text._put.lto_priv.13
                0x0000000000000000       0x48 /tmp/cceRjJvB.ltrans0.ltrans.o
 .text._get.lto_priv.10
                0x0000000000000000       0x44 /tmp/cceRjJvB.ltrans0.ltrans.o
 .rodata.vmt.lto_priv.6
                0x0000000000000000       0x14 /tmp/cceRjJvB.ltrans0.ltrans.o
 .text.msObjectInit
                0x0000000000000000       0x3c /tmp/cceRjJvB.ltrans0.ltrans.o
 .text.writes   0x0000000000000000       0x1a /tmp/cceRjJvB.ltrans0.ltrans.o
 .text.reads    0x0000000000000000       0x1a /tmp/cceRjJvB.ltrans0.ltrans.o
 .text.put      0x0000000000000000       0x1a /tmp/cceRjJvB.ltrans0.ltrans.o
 .text.get      0x0000000000000000       0x16 /tmp/cceRjJvB.ltrans0.ltrans.o
 .rodata.vmt.lto_priv.7
                0x0000000000000000       0x14 /tmp/cceRjJvB.ltrans0.ltrans.o
 .text.nullObjectInit
                0x0000000000000000       0x1c /tmp/cceRjJvB.ltrans0.ltrans.o
 .text.wait_for_start_signal
                0x0000000000000000       0x38 /tmp/cceRjJvB.ltrans0.ltrans.o
 .text          0x0000000000000000        0x0 /tmp/cceRjJvB.ltrans1.ltrans.o
 .data          0x0000000000000000        0x0 /tmp/cceRjJvB.ltrans1.ltrans.o
 .bss           0x0000000000000000        0x0 /tmp/cceRjJvB.ltrans1.ltrans.o
 .text.chMBFetchTimeoutS
                0x0000000000000000       0x86 /tmp/cceRjJvB.ltrans1.ltrans.o
 .text.chMBFetchI
                0x0000000000000000       0x6e /tmp/cceRjJvB.ltrans1.ltrans.o
 .text.chCoreGetStatusX
                0x0000000000000000       0x20 /tmp/cceRjJvB.ltrans1.ltrans.o
 .text.chHeapObjectInit
                0x0000000000000000       0x56 /tmp/cceRjJvB.ltrans1.ltrans.o
 .text.chHeapAllocAligned
                0x0000000000000000      0x1ac /tmp/cceRjJvB.ltrans1.ltrans.o
 .text.chHeapFree
                0x0000000000000000       0xd6 /tmp/cceRjJvB.ltrans1.ltrans.o
 .text.chHeapStatus
                0x0000000000000000       0x98 /tmp/cceRjJvB.ltrans1.ltrans.o
 .text.port_lock.lto_priv.38
                0x0000000000000000       0x1a /tmp/cceRjJvB.ltrans1.ltrans.o
 .text.port_unlock.lto_priv.35
                0x0000000000000000       0x1a /tmp/cceRjJvB.ltrans1.ltrans.o
 .text.chSysLock.lto_priv.43
                0x0000000000000000        0xa /tmp/cceRjJvB.ltrans1.ltrans.o
 .text.chSysUnlock.lto_priv.41
                0x0000000000000000        0xa /tmp/cceRjJvB.ltrans1.ltrans.o
 .text.chPoolAdd
                0x0000000000000000       0x18 /tmp/cceRjJvB.ltrans1.ltrans.o
 .text.chGuardedPoolAdd
                0x0000000000000000       0x18 /tmp/cceRjJvB.ltrans1.ltrans.o
 .text.chPoolLoadArray
                0x0000000000000000       0x32 /tmp/cceRjJvB.ltrans1.ltrans.o
 .text.chPoolAllocI
                0x0000000000000000       0x44 /tmp/cceRjJvB.ltrans1.ltrans.o
 .text.chPoolAlloc
                0x0000000000000000       0x22 /tmp/cceRjJvB.ltrans1.ltrans.o
 .text.chPoolFreeI
                0x0000000000000000       0x26 /tmp/cceRjJvB.ltrans1.ltrans.o
 .text.chPoolFree
                0x0000000000000000       0x20 /tmp/cceRjJvB.ltrans1.ltrans.o
 .text.chGuardedPoolObjectInitAligned
                0x0000000000000000       0x2c /tmp/cceRjJvB.ltrans1.ltrans.o
 .text.chGuardedPoolLoadArray
                0x0000000000000000       0x32 /tmp/cceRjJvB.ltrans1.ltrans.o
 .text.chGuardedPoolAllocTimeoutS
                0x0000000000000000       0x34 /tmp/cceRjJvB.ltrans1.ltrans.o
 .text.chGuardedPoolAllocTimeout
                0x0000000000000000       0x26 /tmp/cceRjJvB.ltrans1.ltrans.o
 .text.chGuardedPoolFreeI
                0x0000000000000000       0x24 /tmp/cceRjJvB.ltrans1.ltrans.o
 .text.chGuardedPoolFree
                0x0000000000000000       0x24 /tmp/cceRjJvB.ltrans1.ltrans.o
 .text.chHeapAlloc
                0x0000000000000000       0x1e /tmp/cceRjJvB.ltrans1.ltrans.o
 .text.chFifoObjectInit
                0x0000000000000000       0x3a /tmp/cceRjJvB.ltrans1.ltrans.o
 .text.dyn_list_find
                0x0000000000000000       0x42 /tmp/cceRjJvB.ltrans1.ltrans.o
 .text.dyn_list_unlink
                0x0000000000000000       0x44 /tmp/cceRjJvB.ltrans1.ltrans.o
 .text.dyn_create_object_heap
                0x0000000000000000       0x60 /tmp/cceRjJvB.ltrans1.ltrans.o
 .text.dyn_release_object_heap
                0x0000000000000000       0x32 /tmp/cceRjJvB.ltrans1.ltrans.o
 .text.dyn_create_object_pool
                0x0000000000000000       0x5e /tmp/cceRjJvB.ltrans1.ltrans.o
 .text.dyn_release_object_pool
                0x0000000000000000       0x36 /tmp/cceRjJvB.ltrans1.ltrans.o
 .text.dyn_find_object
                0x0000000000000000       0x2e /tmp/cceRjJvB.ltrans1.ltrans.o
 .text.chFactoryRegisterObject
                0x0000000000000000       0x44 /tmp/cceRjJvB.ltrans1.ltrans.o
 .text.chFactoryFindObject
                0x0000000000000000       0x30 /tmp/cceRjJvB.ltrans1.ltrans.o
 .text.chFactoryFindObjectByPointer
                0x0000000000000000       0x5c /tmp/cceRjJvB.ltrans1.ltrans.o
 .text.chFactoryReleaseObject
                0x0000000000000000       0x34 /tmp/cceRjJvB.ltrans1.ltrans.o
 .text.chFactoryCreateBuffer
                0x0000000000000000       0x48 /tmp/cceRjJvB.ltrans1.ltrans.o
 .text.chFactoryFindBuffer
                0x0000000000000000       0x30 /tmp/cceRjJvB.ltrans1.ltrans.o
 .text.chFactoryReleaseBuffer
                0x0000000000000000       0x2c /tmp/cceRjJvB.ltrans1.ltrans.o
 .text.chFactoryCreateSemaphore
                0x0000000000000000       0x4c /tmp/cceRjJvB.ltrans1.ltrans.o
 .text.chFactoryFindSemaphore
                0x0000000000000000       0x30 /tmp/cceRjJvB.ltrans1.ltrans.o
 .text.chFactoryReleaseSemaphore
                0x0000000000000000       0x34 /tmp/cceRjJvB.ltrans1.ltrans.o
 .text.chFactoryCreateMailbox
                0x0000000000000000       0x54 /tmp/cceRjJvB.ltrans1.ltrans.o
 .text.chFactoryFindMailbox
                0x0000000000000000       0x30 /tmp/cceRjJvB.ltrans1.ltrans.o
 .text.chFactoryReleaseMailbox
                0x0000000000000000       0x2c /tmp/cceRjJvB.ltrans1.ltrans.o
 .text.chFactoryCreateObjectsFIFO
                0x0000000000000000       0x74 /tmp/cceRjJvB.ltrans1.ltrans.o
 .text.chFactoryFindObjectsFIFO
                0x0000000000000000       0x30 /tmp/cceRjJvB.ltrans1.ltrans.o
 .text.chFactoryReleaseObjectsFIFO
                0x0000000000000000       0x2c /tmp/cceRjJvB.ltrans1.ltrans.o
 .text          0x0000000000000000        0x0 /tmp/cceRjJvB.ltrans2.ltrans.o
 .data          0x0000000000000000        0x0 /tmp/cceRjJvB.ltrans2.ltrans.o
 .bss           0x0000000000000000        0x0 /tmp/cceRjJvB.ltrans2.ltrans.o
 .text.chMtxTryLock
                0x0000000000000000       0x24 /tmp/cceRjJvB.ltrans2.ltrans.o
 .text.chMtxTryLockS
                0x0000000000000000       0x40 /tmp/cceRjJvB.ltrans2.ltrans.o
 .text.chMtxUnlockS
                0x0000000000000000       0x98 /tmp/cceRjJvB.ltrans2.ltrans.o
 .text.chMtxUnlockAllS
                0x0000000000000000       0x70 /tmp/cceRjJvB.ltrans2.ltrans.o
 .text.chMtxUnlockAll
                0x0000000000000000       0x80 /tmp/cceRjJvB.ltrans2.ltrans.o
 .text.port_lock.lto_priv.66
                0x0000000000000000       0x1a /tmp/cceRjJvB.ltrans2.ltrans.o
 .text.port_unlock.lto_priv.61
                0x0000000000000000       0x1a /tmp/cceRjJvB.ltrans2.ltrans.o
 .text.queue_init.lto_priv.59
                0x0000000000000000       0x1e /tmp/cceRjJvB.ltrans2.ltrans.o
 .text.queue_notempty
                0x0000000000000000       0x24 /tmp/cceRjJvB.ltrans2.ltrans.o
 .text.queue_prio_insert.lto_priv.75
                0x0000000000000000       0x4e /tmp/cceRjJvB.ltrans2.ltrans.o
 .text.queue_fifo_remove.lto_priv.72
                0x0000000000000000       0x2c /tmp/cceRjJvB.ltrans2.ltrans.o
 .text.chSysLock.lto_priv.53
                0x0000000000000000        0xa /tmp/cceRjJvB.ltrans2.ltrans.o
 .text.chSysUnlock.lto_priv.47
                0x0000000000000000        0xa /tmp/cceRjJvB.ltrans2.ltrans.o
 .text.chThdGetSelfX
                0x0000000000000000       0x18 /tmp/cceRjJvB.ltrans2.ltrans.o
 .text.chMtxGetNextMutexS
                0x0000000000000000       0x10 /tmp/cceRjJvB.ltrans2.ltrans.o
 .text.chCondObjectInit
                0x0000000000000000       0x16 /tmp/cceRjJvB.ltrans2.ltrans.o
 .text.chCondSignal
                0x0000000000000000       0x36 /tmp/cceRjJvB.ltrans2.ltrans.o
 .text.chCondSignalI
                0x0000000000000000       0x32 /tmp/cceRjJvB.ltrans2.ltrans.o
 .text.chCondBroadcast
                0x0000000000000000       0x20 /tmp/cceRjJvB.ltrans2.ltrans.o
 .text.chCondBroadcastI
                0x0000000000000000       0x36 /tmp/cceRjJvB.ltrans2.ltrans.o
 .text.chCondWait
                0x0000000000000000       0x22 /tmp/cceRjJvB.ltrans2.ltrans.o
 .text.chCondWaitS
                0x0000000000000000       0x4c /tmp/cceRjJvB.ltrans2.ltrans.o
 .text.chCondWaitTimeout
                0x0000000000000000       0x26 /tmp/cceRjJvB.ltrans2.ltrans.o
 .text.chCondWaitTimeoutS
                0x0000000000000000       0x54 /tmp/cceRjJvB.ltrans2.ltrans.o
 .text.port_lock.lto_priv.67
                0x0000000000000000       0x1a /tmp/cceRjJvB.ltrans2.ltrans.o
 .text.port_unlock.lto_priv.62
                0x0000000000000000       0x1a /tmp/cceRjJvB.ltrans2.ltrans.o
 .text.chSysLock.lto_priv.54
                0x0000000000000000        0xa /tmp/cceRjJvB.ltrans2.ltrans.o
 .text.chSysUnlock.lto_priv.48
                0x0000000000000000        0xa /tmp/cceRjJvB.ltrans2.ltrans.o
 .text.chEvtAddEventsI
                0x0000000000000000       0x2c /tmp/cceRjJvB.ltrans2.ltrans.o
 .text.chEvtRegisterMaskWithFlags
                0x0000000000000000       0x48 /tmp/cceRjJvB.ltrans2.ltrans.o
 .text.chEvtUnregister
                0x0000000000000000       0x42 /tmp/cceRjJvB.ltrans2.ltrans.o
 .text.chEvtGetAndClearEventsI
                0x0000000000000000       0x38 /tmp/cceRjJvB.ltrans2.ltrans.o
 .text.chEvtGetAndClearEvents
                0x0000000000000000       0x22 /tmp/cceRjJvB.ltrans2.ltrans.o
 .text.chEvtAddEvents
                0x0000000000000000       0x22 /tmp/cceRjJvB.ltrans2.ltrans.o
 .text.chEvtGetAndClearFlags
                0x0000000000000000       0x26 /tmp/cceRjJvB.ltrans2.ltrans.o
 .text.chEvtSignal
                0x0000000000000000       0x24 /tmp/cceRjJvB.ltrans2.ltrans.o
 .text.chEvtBroadcastFlags
                0x0000000000000000       0x24 /tmp/cceRjJvB.ltrans2.ltrans.o
 .text.chEvtGetAndClearFlagsI
                0x0000000000000000       0x22 /tmp/cceRjJvB.ltrans2.ltrans.o
 .text.chEvtDispatch
                0x0000000000000000       0x50 /tmp/cceRjJvB.ltrans2.ltrans.o
 .text.chEvtWaitOne
                0x0000000000000000       0x64 /tmp/cceRjJvB.ltrans2.ltrans.o
 .text.chEvtWaitAny
                0x0000000000000000       0x58 /tmp/cceRjJvB.ltrans2.ltrans.o
 .text.chEvtWaitAll
                0x0000000000000000       0x4c /tmp/cceRjJvB.ltrans2.ltrans.o
 .text.chEvtWaitOneTimeout
                0x0000000000000000       0x84 /tmp/cceRjJvB.ltrans2.ltrans.o
 .text.chEvtWaitAnyTimeout
                0x0000000000000000       0x78 /tmp/cceRjJvB.ltrans2.ltrans.o
 .text.chEvtWaitAllTimeout
                0x0000000000000000       0x6c /tmp/cceRjJvB.ltrans2.ltrans.o
 .text.port_lock.lto_priv.68
                0x0000000000000000       0x1a /tmp/cceRjJvB.ltrans2.ltrans.o
 .text.port_unlock.lto_priv.63
                0x0000000000000000       0x1a /tmp/cceRjJvB.ltrans2.ltrans.o
 .text.queue_insert
                0x0000000000000000       0x30 /tmp/cceRjJvB.ltrans2.ltrans.o
 .text.queue_fifo_remove.lto_priv.73
                0x0000000000000000       0x2c /tmp/cceRjJvB.ltrans2.ltrans.o
 .text.chSysLock.lto_priv.55
                0x0000000000000000        0xa /tmp/cceRjJvB.ltrans2.ltrans.o
 .text.chSysUnlock.lto_priv.49
                0x0000000000000000        0xa /tmp/cceRjJvB.ltrans2.ltrans.o
 .text.chMsgIsPendingI
                0x0000000000000000       0x26 /tmp/cceRjJvB.ltrans2.ltrans.o
 .text.chMsgReleaseS
                0x0000000000000000       0x18 /tmp/cceRjJvB.ltrans2.ltrans.o
 .text.chMsgSend
                0x0000000000000000       0x54 /tmp/cceRjJvB.ltrans2.ltrans.o
 .text.chMsgWait
                0x0000000000000000       0x50 /tmp/cceRjJvB.ltrans2.ltrans.o
 .text.chMsgRelease
                0x0000000000000000       0x20 /tmp/cceRjJvB.ltrans2.ltrans.o
 .text.port_lock.lto_priv.69
                0x0000000000000000       0x1a /tmp/cceRjJvB.ltrans2.ltrans.o
 .text.port_unlock.lto_priv.64
                0x0000000000000000       0x1a /tmp/cceRjJvB.ltrans2.ltrans.o
 .text.chSysLock.lto_priv.56
                0x0000000000000000        0xa /tmp/cceRjJvB.ltrans2.ltrans.o
 .text.chSysUnlock.lto_priv.50
                0x0000000000000000        0xa /tmp/cceRjJvB.ltrans2.ltrans.o
 .text.chThdCreateFromHeap
                0x0000000000000000       0x6e /tmp/cceRjJvB.ltrans2.ltrans.o
 .text.chThdCreateFromMemoryPool
                0x0000000000000000       0x72 /tmp/cceRjJvB.ltrans2.ltrans.o
 .text.port_lock.lto_priv.70
                0x0000000000000000       0x1a /tmp/cceRjJvB.ltrans2.ltrans.o
 .text.port_unlock.lto_priv.65
                0x0000000000000000       0x1a /tmp/cceRjJvB.ltrans2.ltrans.o
 .text.queue_init.lto_priv.60
                0x0000000000000000       0x1e /tmp/cceRjJvB.ltrans2.ltrans.o
 .text.chSysLock.lto_priv.57
                0x0000000000000000        0xa /tmp/cceRjJvB.ltrans2.ltrans.o
 .text.chSysUnlock.lto_priv.51
                0x0000000000000000        0xa /tmp/cceRjJvB.ltrans2.ltrans.o
 .text.chThdQueueObjectInit
                0x0000000000000000       0x14 /tmp/cceRjJvB.ltrans2.ltrans.o
 .text.chMBGetSizeI
                0x0000000000000000       0x22 /tmp/cceRjJvB.ltrans2.ltrans.o
 .text.chMBGetUsedCountI.lto_priv.45
                0x0000000000000000       0x18 /tmp/cceRjJvB.ltrans2.ltrans.o
 .text.chMBGetFreeCountI
                0x0000000000000000       0x22 /tmp/cceRjJvB.ltrans2.ltrans.o
 .text.chMBObjectInit
                0x0000000000000000       0x50 /tmp/cceRjJvB.ltrans2.ltrans.o
 .text.chMBReset
                0x0000000000000000       0x20 /tmp/cceRjJvB.ltrans2.ltrans.o
 .text.chMBResetI
                0x0000000000000000       0x46 /tmp/cceRjJvB.ltrans2.ltrans.o
 .text.chMBPostTimeout
                0x0000000000000000       0x2a /tmp/cceRjJvB.ltrans2.ltrans.o
 .text.chMBPostTimeoutS
                0x0000000000000000       0x84 /tmp/cceRjJvB.ltrans2.ltrans.o
 .text.chMBPostI
                0x0000000000000000       0x6c /tmp/cceRjJvB.ltrans2.ltrans.o
 .text.chMBPostAheadTimeout
                0x0000000000000000       0x2a /tmp/cceRjJvB.ltrans2.ltrans.o
 .text.chMBPostAheadTimeoutS
                0x0000000000000000       0x8a /tmp/cceRjJvB.ltrans2.ltrans.o
 .text.chMBPostAheadI
                0x0000000000000000       0x72 /tmp/cceRjJvB.ltrans2.ltrans.o
 .text.chMBFetchTimeout
                0x0000000000000000       0x2a /tmp/cceRjJvB.ltrans2.ltrans.o
 .text          0x0000000000000000        0x0 /tmp/cceRjJvB.ltrans3.ltrans.o
 .data          0x0000000000000000        0x0 /tmp/cceRjJvB.ltrans3.ltrans.o
 .bss           0x0000000000000000        0x0 /tmp/cceRjJvB.ltrans3.ltrans.o
 .text.chThdCreateSuspended
                0x0000000000000000       0x22 /tmp/cceRjJvB.ltrans3.ltrans.o
 .text.chThdCreateI
                0x0000000000000000       0x20 /tmp/cceRjJvB.ltrans3.ltrans.o
 .text.chThdStart
                0x0000000000000000       0x22 /tmp/cceRjJvB.ltrans3.ltrans.o
 .text.chThdAddRef
                0x0000000000000000       0x2a /tmp/cceRjJvB.ltrans3.ltrans.o
 .text.chThdRelease
                0x0000000000000000       0x8c /tmp/cceRjJvB.ltrans3.ltrans.o
 .text.chThdWait
                0x0000000000000000       0x4c /tmp/cceRjJvB.ltrans3.ltrans.o
 .text.chThdSetPriority
                0x0000000000000000       0x58 /tmp/cceRjJvB.ltrans3.ltrans.o
 .text.chThdTerminate
                0x0000000000000000       0x28 /tmp/cceRjJvB.ltrans3.ltrans.o
 .text.chThdSleepUntil
                0x0000000000000000       0x32 /tmp/cceRjJvB.ltrans3.ltrans.o
 .text.chThdSleepUntilWindowed
                0x0000000000000000       0x42 /tmp/cceRjJvB.ltrans3.ltrans.o
 .text.chThdYield
                0x0000000000000000       0x12 /tmp/cceRjJvB.ltrans3.ltrans.o
 .text.chThdSuspendS
                0x0000000000000000       0x30 /tmp/cceRjJvB.ltrans3.ltrans.o
 .text.chThdResumeS
                0x0000000000000000       0x2c /tmp/cceRjJvB.ltrans3.ltrans.o
 .text.chThdResume
                0x0000000000000000       0x20 /tmp/cceRjJvB.ltrans3.ltrans.o
 .text.chTMChainMeasurementToX
                0x0000000000000000       0x28 /tmp/cceRjJvB.ltrans3.ltrans.o
 .text.port_lock.lto_priv.83
                0x0000000000000000       0x1a /tmp/cceRjJvB.ltrans3.ltrans.o
 .text.port_unlock.lto_priv.80
                0x0000000000000000       0x1a /tmp/cceRjJvB.ltrans3.ltrans.o
 .text.chSysLock.lto_priv.90
                0x0000000000000000        0xa /tmp/cceRjJvB.ltrans3.ltrans.o
 .text.chSysUnlock.lto_priv.87
                0x0000000000000000        0xa /tmp/cceRjJvB.ltrans3.ltrans.o
 .text.chThdGetWorkingAreaX.lto_priv.97
                0x0000000000000000       0x18 /tmp/cceRjJvB.ltrans3.ltrans.o
 .text.chRegGetThreadNameX
                0x0000000000000000       0x18 /tmp/cceRjJvB.ltrans3.ltrans.o
 .text.chRegFirstThread
                0x0000000000000000       0x34 /tmp/cceRjJvB.ltrans3.ltrans.o
 .text.chRegNextThread
                0x0000000000000000       0x48 /tmp/cceRjJvB.ltrans3.ltrans.o
 .text.chRegFindThreadByName
                0x0000000000000000       0x40 /tmp/cceRjJvB.ltrans3.ltrans.o
 .text.chRegFindThreadByPointer
                0x0000000000000000       0x32 /tmp/cceRjJvB.ltrans3.ltrans.o
 .text.chRegFindThreadByWorkingArea
                0x0000000000000000       0x38 /tmp/cceRjJvB.ltrans3.ltrans.o
 .text.queue_lifo_remove
                0x0000000000000000       0x2c /tmp/cceRjJvB.ltrans3.ltrans.o
 .text.chSemReset
                0x0000000000000000       0x24 /tmp/cceRjJvB.ltrans3.ltrans.o
 .text.chSemResetI
                0x0000000000000000       0x42 /tmp/cceRjJvB.ltrans3.ltrans.o
 .text.chSemWaitTimeout
                0x0000000000000000       0x26 /tmp/cceRjJvB.ltrans3.ltrans.o
 .text.chSemWaitTimeoutS
                0x0000000000000000       0x64 /tmp/cceRjJvB.ltrans3.ltrans.o
 .text.chSemSignal
                0x0000000000000000       0x3a /tmp/cceRjJvB.ltrans3.ltrans.o
 .text.chSemAddCounterI
                0x0000000000000000       0x46 /tmp/cceRjJvB.ltrans3.ltrans.o
 .text.chSemSignalWait
                0x0000000000000000       0x88 /tmp/cceRjJvB.ltrans3.ltrans.o
 .text          0x0000000000000000        0x0 /tmp/cceRjJvB.ltrans4.ltrans.o
 .data          0x0000000000000000        0x0 /tmp/cceRjJvB.ltrans4.ltrans.o
 .bss           0x0000000000000000        0x0 /tmp/cceRjJvB.ltrans4.ltrans.o
 .text.uart_lld_stop
                0x0000000000000000       0x54 /tmp/cceRjJvB.ltrans4.ltrans.o
 .text.uart_lld_stop_send
                0x0000000000000000       0x54 /tmp/cceRjJvB.ltrans4.ltrans.o
 .text.uart_lld_start_receive
                0x0000000000000000       0x86 /tmp/cceRjJvB.ltrans4.ltrans.o
 .text.uart_lld_stop_receive
                0x0000000000000000       0x5a /tmp/cceRjJvB.ltrans4.ltrans.o
 .text.port_get_irq_status
                0x0000000000000000       0x1e /tmp/cceRjJvB.ltrans4.ltrans.o
 .text.port_irq_enabled
                0x0000000000000000       0x20 /tmp/cceRjJvB.ltrans4.ltrans.o
 .text.port_is_isr_context
                0x0000000000000000       0x28 /tmp/cceRjJvB.ltrans4.ltrans.o
 .text.chSysLock
                0x0000000000000000        0xa /tmp/cceRjJvB.ltrans4.ltrans.o
 .text.chSysUnlock
                0x0000000000000000        0xa /tmp/cceRjJvB.ltrans4.ltrans.o
 .text.chSysIntegrityCheckI
                0x0000000000000000      0x110 /tmp/cceRjJvB.ltrans4.ltrans.o
 .text.chSysGetStatusAndLockX
                0x0000000000000000       0x36 /tmp/cceRjJvB.ltrans4.ltrans.o
 .text.chSysRestoreStatusX
                0x0000000000000000       0x32 /tmp/cceRjJvB.ltrans4.ltrans.o
 .text.chSchDoRescheduleBehind
                0x0000000000000000       0x40 /tmp/cceRjJvB.ltrans4.ltrans.o
 .text.chTimeDiffX.lto_priv.102
                0x0000000000000000       0x1c /tmp/cceRjJvB.ltrans4.ltrans.o
 .text.chTimeIsInRangeX.lto_priv.103
                0x0000000000000000       0x2e /tmp/cceRjJvB.ltrans4.ltrans.o
 .text.st_lld_get_counter.lto_priv.116
                0x0000000000000000       0x14 /tmp/cceRjJvB.ltrans4.ltrans.o
 .text.port_timer_get_time.lto_priv.113
                0x0000000000000000        0xe /tmp/cceRjJvB.ltrans4.ltrans.o
 .text.list_insert.lto_priv.105
                0x0000000000000000       0x22 /tmp/cceRjJvB.ltrans4.ltrans.o
 .text.chSchCanYieldS
                0x0000000000000000       0x28 /tmp/cceRjJvB.ltrans4.ltrans.o
 .text.chSchDoYieldS.lto_priv.100
                0x0000000000000000       0x14 /tmp/cceRjJvB.ltrans4.ltrans.o
 .text.chVTGetSystemTimeX.lto_priv.104
                0x0000000000000000        0xe /tmp/cceRjJvB.ltrans4.ltrans.o
 .text.chThdGetWorkingAreaX.lto_priv.96
                0x0000000000000000       0x18 /tmp/cceRjJvB.ltrans4.ltrans.o
 .text          0x0000000000000000        0x0 /tmp/cceRjJvB.ltrans5.ltrans.o
 .data          0x0000000000000000        0x0 /tmp/cceRjJvB.ltrans5.ltrans.o
 .bss           0x0000000000000000        0x0 /tmp/cceRjJvB.ltrans5.ltrans.o
 .text.spi_lld_stop
                0x0000000000000000       0x68 /tmp/cceRjJvB.ltrans5.ltrans.o
 .text.spi_lld_ignore
                0x0000000000000000       0x84 /tmp/cceRjJvB.ltrans5.ltrans.o
 .text.spi_lld_exchange
                0x0000000000000000       0x88 /tmp/cceRjJvB.ltrans5.ltrans.o
 .text.spi_lld_abort
                0x0000000000000000       0x82 /tmp/cceRjJvB.ltrans5.ltrans.o
 .text.spi_lld_polled_exchange
                0x0000000000000000       0x36 /tmp/cceRjJvB.ltrans5.ltrans.o
 .text.usart_init
                0x0000000000000000       0xc0 /tmp/cceRjJvB.ltrans5.ltrans.o
 .text.usart_deinit
                0x0000000000000000       0x24 /tmp/cceRjJvB.ltrans5.ltrans.o
 .text.sd_lld_start
                0x0000000000000000       0x8c /tmp/cceRjJvB.ltrans5.ltrans.o
 .text.sd_lld_stop
                0x0000000000000000       0x64 /tmp/cceRjJvB.ltrans5.ltrans.o
 .text          0x0000000000000000        0x0 /tmp/cceRjJvB.ltrans6.ltrans.o
 .data          0x0000000000000000        0x0 /tmp/cceRjJvB.ltrans6.ltrans.o
 .bss           0x0000000000000000        0x0 /tmp/cceRjJvB.ltrans6.ltrans.o
 .text.dmaStreamRelease
                0x0000000000000000       0x64 /tmp/cceRjJvB.ltrans6.ltrans.o
 .text._pal_lld_setgroupmode
                0x0000000000000000      0x174 /tmp/cceRjJvB.ltrans6.ltrans.o
 .text.usb_lld_stop
                0x0000000000000000       0x58 /tmp/cceRjJvB.ltrans6.ltrans.o
 .text          0x0000000000000000        0x0 /tmp/cceRjJvB.ltrans7.ltrans.o
 .data          0x0000000000000000        0x0 /tmp/cceRjJvB.ltrans7.ltrans.o
 .bss           0x0000000000000000        0x0 /tmp/cceRjJvB.ltrans7.ltrans.o
 .text.uartStop
                0x0000000000000000       0x34 /tmp/cceRjJvB.ltrans7.ltrans.o
 .text.uartStartSendI
                0x0000000000000000       0x22 /tmp/cceRjJvB.ltrans7.ltrans.o
 .text.uartStopSend
                0x0000000000000000       0x38 /tmp/cceRjJvB.ltrans7.ltrans.o
 .text.uartStopSendI
                0x0000000000000000       0x2e /tmp/cceRjJvB.ltrans7.ltrans.o
 .text.uartStartReceive
                0x0000000000000000       0x2a /tmp/cceRjJvB.ltrans7.ltrans.o
 .text.uartStartReceiveI
                0x0000000000000000       0x22 /tmp/cceRjJvB.ltrans7.ltrans.o
 .text.uartStopReceive
                0x0000000000000000       0x38 /tmp/cceRjJvB.ltrans7.ltrans.o
 .text.uartStopReceiveI
                0x0000000000000000       0x2e /tmp/cceRjJvB.ltrans7.ltrans.o
 .text.osalOsRescheduleS
                0x0000000000000000        0xa /tmp/cceRjJvB.ltrans7.ltrans.o
 .text.osalThreadSleep
                0x0000000000000000       0x14 /tmp/cceRjJvB.ltrans7.ltrans.o
 .text.usbStop  0x0000000000000000       0x4c /tmp/cceRjJvB.ltrans7.ltrans.o
 .text.usbStallReceiveI
                0x0000000000000000       0x3a /tmp/cceRjJvB.ltrans7.ltrans.o
 .text.usbStallTransmitI
                0x0000000000000000       0x3a /tmp/cceRjJvB.ltrans7.ltrans.o
 .text.usbWakeupHost
                0x0000000000000000       0x44 /tmp/cceRjJvB.ltrans7.ltrans.o
 .text.nvicDisableVector
                0x0000000000000000       0x3c /tmp/cceRjJvB.ltrans7.ltrans.o
 .text.nvicSetSystemHandlerPriority
                0x0000000000000000       0x2c /tmp/cceRjJvB.ltrans7.ltrans.o
 .text.nvicClearPending
                0x0000000000000000       0x30 /tmp/cceRjJvB.ltrans7.ltrans.o
 .text.irqDeinit
                0x0000000000000000       0x30 /tmp/cceRjJvB.ltrans7.ltrans.o
 .text          0x0000000000000000        0x0 /tmp/cceRjJvB.ltrans8.ltrans.o
 .data          0x0000000000000000        0x0 /tmp/cceRjJvB.ltrans8.ltrans.o
 .bss           0x0000000000000000        0x0 /tmp/cceRjJvB.ltrans8.ltrans.o
 .text.iqReadI  0x0000000000000000       0x3a /tmp/cceRjJvB.ltrans8.ltrans.o
 .text.oqResetI
                0x0000000000000000       0x3c /tmp/cceRjJvB.ltrans8.ltrans.o
 .text.oqPutI   0x0000000000000000       0x60 /tmp/cceRjJvB.ltrans8.ltrans.o
 .text.oqWriteI
                0x0000000000000000       0x3a /tmp/cceRjJvB.ltrans8.ltrans.o
 .text.palReadBus
                0x0000000000000000       0x26 /tmp/cceRjJvB.ltrans8.ltrans.o
 .text.palWriteBus
                0x0000000000000000       0x3e /tmp/cceRjJvB.ltrans8.ltrans.o
 .text.palSetBusMode
                0x0000000000000000       0x28 /tmp/cceRjJvB.ltrans8.ltrans.o
 .text.port_lock.lto_priv.203
                0x0000000000000000       0x1a /tmp/cceRjJvB.ltrans8.ltrans.o
 .text.port_unlock.lto_priv.199
                0x0000000000000000       0x1a /tmp/cceRjJvB.ltrans8.ltrans.o
 .text.chSysLock.lto_priv.195
                0x0000000000000000        0xa /tmp/cceRjJvB.ltrans8.ltrans.o
 .text.chSysUnlock.lto_priv.191
                0x0000000000000000        0xa /tmp/cceRjJvB.ltrans8.ltrans.o
 .text.osalSysLock.lto_priv.215
                0x0000000000000000        0xa /tmp/cceRjJvB.ltrans8.ltrans.o
 .text.osalSysUnlock.lto_priv.211
                0x0000000000000000        0xa /tmp/cceRjJvB.ltrans8.ltrans.o
 .text.osalOsRescheduleS.lto_priv.207
                0x0000000000000000        0xa /tmp/cceRjJvB.ltrans8.ltrans.o
 .text.sdStart  0x0000000000000000       0x26 /tmp/cceRjJvB.ltrans8.ltrans.o
 .text.sdStop   0x0000000000000000       0x3a /tmp/cceRjJvB.ltrans8.ltrans.o
 .text.sdRequestDataI
                0x0000000000000000       0x30 /tmp/cceRjJvB.ltrans8.ltrans.o
 .text.sdPutWouldBlock
                0x0000000000000000       0x28 /tmp/cceRjJvB.ltrans8.ltrans.o
 .text.sdGetWouldBlock
                0x0000000000000000       0x28 /tmp/cceRjJvB.ltrans8.ltrans.o
 .text.sdControl
                0x0000000000000000       0x20 /tmp/cceRjJvB.ltrans8.ltrans.o
 .text.osalOsRescheduleS.lto_priv.208
                0x0000000000000000        0xa /tmp/cceRjJvB.ltrans8.ltrans.o
 .text.sduStop  0x0000000000000000       0x9e /tmp/cceRjJvB.ltrans8.ltrans.o
 .text.sduControl
                0x0000000000000000       0x20 /tmp/cceRjJvB.ltrans8.ltrans.o
 .text.osalOsRescheduleS.lto_priv.209
                0x0000000000000000        0xa /tmp/cceRjJvB.ltrans8.ltrans.o
 .text.osalThreadResumeI
                0x0000000000000000       0x18 /tmp/cceRjJvB.ltrans8.ltrans.o
 .text.osalMutexLock
                0x0000000000000000       0x14 /tmp/cceRjJvB.ltrans8.ltrans.o
 .text.osalMutexUnlock
                0x0000000000000000       0x14 /tmp/cceRjJvB.ltrans8.ltrans.o
 .text.spiStop  0x0000000000000000       0x28 /tmp/cceRjJvB.ltrans8.ltrans.o
 .text.spiStartIgnore
                0x0000000000000000       0x26 /tmp/cceRjJvB.ltrans8.ltrans.o
 .text.spiStartExchange
                0x0000000000000000       0x2e /tmp/cceRjJvB.ltrans8.ltrans.o
 .text.spiStartSend
                0x0000000000000000       0x2a /tmp/cceRjJvB.ltrans8.ltrans.o
 .text.spiStartReceive
                0x0000000000000000       0x2a /tmp/cceRjJvB.ltrans8.ltrans.o
 .text.spiAbortI
                0x0000000000000000       0x26 /tmp/cceRjJvB.ltrans8.ltrans.o
 .text.spiAbort
                0x0000000000000000       0x28 /tmp/cceRjJvB.ltrans8.ltrans.o
 .text.spiIgnore
                0x0000000000000000       0x30 /tmp/cceRjJvB.ltrans8.ltrans.o
 .text.spiExchange
                0x0000000000000000       0x38 /tmp/cceRjJvB.ltrans8.ltrans.o
 .text.spiAcquireBus
                0x0000000000000000       0x18 /tmp/cceRjJvB.ltrans8.ltrans.o
 .text.spiReleaseBus
                0x0000000000000000       0x18 /tmp/cceRjJvB.ltrans8.ltrans.o
 .text          0x0000000000000000        0x0 /tmp/cceRjJvB.ltrans9.ltrans.o
 .data          0x0000000000000000        0x0 /tmp/cceRjJvB.ltrans9.ltrans.o
 .bss           0x0000000000000000        0x0 /tmp/cceRjJvB.ltrans9.ltrans.o
 .text.st_lld_get_alarm
                0x0000000000000000       0x14 /tmp/cceRjJvB.ltrans9.ltrans.o
 .text.stGetAlarm
                0x0000000000000000        0xe /tmp/cceRjJvB.ltrans9.ltrans.o
 .text.ibqGetFullBufferTimeout
                0x0000000000000000       0x26 /tmp/cceRjJvB.ltrans9.ltrans.o
 .text.ibqReleaseEmptyBuffer
                0x0000000000000000       0x1c /tmp/cceRjJvB.ltrans9.ltrans.o
 .text.obqGetEmptyBufferTimeout
                0x0000000000000000       0x26 /tmp/cceRjJvB.ltrans9.ltrans.o
 .text.obqPostFullBuffer
                0x0000000000000000       0x20 /tmp/cceRjJvB.ltrans9.ltrans.o
 .text.obqFlush
                0x0000000000000000       0x3c /tmp/cceRjJvB.ltrans9.ltrans.o
 .text.osalThreadDequeueAllI.lto_priv.223
                0x0000000000000000       0x18 /tmp/cceRjJvB.ltrans9.ltrans.o
 .text.iqResetI
                0x0000000000000000       0x30 /tmp/cceRjJvB.ltrans9.ltrans.o
 .text.iqGetI   0x0000000000000000       0x5c /tmp/cceRjJvB.ltrans9.ltrans.o
 .text          0x0000000000000000        0x0 build/obj/hal.o (symbol from plugin)
 .text          0x0000000000000000        0x0 build/obj/hal_st.o (symbol from plugin)
 .text          0x0000000000000000        0x0 build/obj/hal_buffers.o (symbol from plugin)
 .text          0x0000000000000000        0x0 build/obj/hal_queues.o (symbol from plugin)
 .text          0x0000000000000000        0x0 build/obj/hal_mmcsd.o (symbol from plugin)
 .text          0x0000000000000000        0x0 build/obj/hal_pal.o (symbol from plugin)
 .text          0x0000000000000000        0x0 build/obj/hal_serial.o (symbol from plugin)
 .text          0x0000000000000000        0x0 build/obj/hal_serial_usb.o (symbol from plugin)
 .text          0x0000000000000000        0x0 build/obj/hal_spi.o (symbol from plugin)
 .text          0x0000000000000000        0x0 build/obj/hal_uart.o (symbol from plugin)
 .text          0x0000000000000000        0x0 build/obj/hal_usb.o (symbol from plugin)
 .text          0x0000000000000000        0x0 build/obj/nvic.o (symbol from plugin)
 .text          0x0000000000000000        0x0 build/obj/stm32_isr.o (symbol from plugin)
 .text          0x0000000000000000        0x0 build/obj/hal_lld.o (symbol from plugin)
 .text          0x0000000000000000        0x0 build/obj/stm32_dma.o (symbol from plugin)
 .text          0x0000000000000000        0x0 build/obj/hal_pal_lld.o (symbol from plugin)
 .text          0x0000000000000000        0x0 build/obj/hal_usb_lld.o (symbol from plugin)
 .text          0x0000000000000000        0x0 build/obj/hal_spi_lld.o (symbol from plugin)
 .text          0x0000000000000000        0x0 build/obj/hal_st_lld.o (symbol from plugin)
 .text          0x0000000000000000        0x0 build/obj/hal_serial_lld.o (symbol from plugin)
 .text          0x0000000000000000        0x0 build/obj/hal_uart_lld.o (symbol from plugin)
 .text          0x0000000000000000        0x0 build/obj/board.o (symbol from plugin)
 .text          0x0000000000000000        0x0 build/obj/osal.o (symbol from plugin)
 .text          0x0000000000000000        0x0 build/obj/chsys.o (symbol from plugin)
 .text          0x0000000000000000        0x0 build/obj/chdebug.o (symbol from plugin)
 .text          0x0000000000000000        0x0 build/obj/chtrace.o (symbol from plugin)
 .text          0x0000000000000000        0x0 build/obj/chvt.o (symbol from plugin)
 .text          0x0000000000000000        0x0 build/obj/chschd.o (symbol from plugin)
 .text          0x0000000000000000        0x0 build/obj/chthreads.o (symbol from plugin)
 .text          0x0000000000000000        0x0 build/obj/chtm.o (symbol from plugin)
 .text          0x0000000000000000        0x0 build/obj/chregistry.o (symbol from plugin)
 .text          0x0000000000000000        0x0 build/obj/chsem.o (symbol from plugin)
 .text          0x0000000000000000        0x0 build/obj/chmtx.o (symbol from plugin)
 .text          0x0000000000000000        0x0 build/obj/chcond.o (symbol from plugin)
 .text          0x0000000000000000        0x0 build/obj/chevents.o (symbol from plugin)
 .text          0x0000000000000000        0x0 build/obj/chmsg.o (symbol from plugin)
 .text          0x0000000000000000        0x0 build/obj/chdynamic.o (symbol from plugin)
 .text          0x0000000000000000        0x0 build/obj/chmboxes.o (symbol from plugin)
 .text          0x0000000000000000        0x0 build/obj/chmemcore.o (symbol from plugin)
 .text          0x0000000000000000        0x0 build/obj/chheap.o (symbol from plugin)
 .text          0x0000000000000000        0x0 build/obj/chmempools.o (symbol from plugin)
 .text          0x0000000000000000        0x0 build/obj/chfactory.o (symbol from plugin)
 .text          0x0000000000000000        0x0 build/obj/chcore.o (symbol from plugin)
 .text          0x0000000000000000        0x0 build/obj/chcore_v7m.o (symbol from plugin)
 .text          0x0000000000000000        0x0 build/obj/l3gd20.o (symbol from plugin)
 .text          0x0000000000000000        0x0 build/obj/chprintf.o (symbol from plugin)
 .text          0x0000000000000000        0x0 build/obj/memstreams.o (symbol from plugin)
 .text          0x0000000000000000        0x0 build/obj/nullstreams.o (symbol from plugin)
 .text          0x0000000000000000        0x0 build/obj/usbcfg.o (symbol from plugin)
 .text          0x0000000000000000        0x0 build/obj/main.o (symbol from plugin)
 .text          0x0000000000000000        0x0 build/obj/mbcrc.o (symbol from plugin)
 .data          0x0000000000000000        0x0 /opt/Atollic_TrueSTUDIO_for_STM32_x86_64_9.1.0/ARMTools/bin/../lib/gcc/arm-atollic-eabi/6.3.1/armv7e-m/fpu/libgcc.a(_arm_addsubdf3.o)
 .bss           0x0000000000000000        0x0 /opt/Atollic_TrueSTUDIO_for_STM32_x86_64_9.1.0/ARMTools/bin/../lib/gcc/arm-atollic-eabi/6.3.1/armv7e-m/fpu/libgcc.a(_arm_addsubdf3.o)
 .data          0x0000000000000000        0x0 /opt/Atollic_TrueSTUDIO_for_STM32_x86_64_9.1.0/ARMTools/bin/../lib/gcc/arm-atollic-eabi/6.3.1/armv7e-m/fpu/libgcc.a(_arm_muldivdf3.o)
 .bss           0x0000000000000000        0x0 /opt/Atollic_TrueSTUDIO_for_STM32_x86_64_9.1.0/ARMTools/bin/../lib/gcc/arm-atollic-eabi/6.3.1/armv7e-m/fpu/libgcc.a(_arm_muldivdf3.o)
 .data          0x0000000000000000        0x0 /opt/Atollic_TrueSTUDIO_for_STM32_x86_64_9.1.0/ARMTools/bin/../lib/gcc/arm-atollic-eabi/6.3.1/armv7e-m/fpu/libgcc.a(_arm_fixdfsi.o)
 .bss           0x0000000000000000        0x0 /opt/Atollic_TrueSTUDIO_for_STM32_x86_64_9.1.0/ARMTools/bin/../lib/gcc/arm-atollic-eabi/6.3.1/armv7e-m/fpu/libgcc.a(_arm_fixdfsi.o)
 .data          0x0000000000000000        0x0 /opt/Atollic_TrueSTUDIO_for_STM32_x86_64_9.1.0/ARMTools/bin/../lib/gcc/arm-atollic-eabi/6.3.1/armv7e-m/fpu/libgcc.a(_arm_truncdfsf2.o)
 .bss           0x0000000000000000        0x0 /opt/Atollic_TrueSTUDIO_for_STM32_x86_64_9.1.0/ARMTools/bin/../lib/gcc/arm-atollic-eabi/6.3.1/armv7e-m/fpu/libgcc.a(_arm_truncdfsf2.o)
 .data          0x0000000000000000        0x0 /opt/Atollic_TrueSTUDIO_for_STM32_x86_64_9.1.0/ARMTools/bin/../lib/gcc/arm-atollic-eabi/6.3.1/armv7e-m/fpu/libgcc.a(_aeabi_uldivmod.o)
 .bss           0x0000000000000000        0x0 /opt/Atollic_TrueSTUDIO_for_STM32_x86_64_9.1.0/ARMTools/bin/../lib/gcc/arm-atollic-eabi/6.3.1/armv7e-m/fpu/libgcc.a(_aeabi_uldivmod.o)
 .data          0x0000000000000000        0x0 /opt/Atollic_TrueSTUDIO_for_STM32_x86_64_9.1.0/ARMTools/bin/../lib/gcc/arm-atollic-eabi/6.3.1/armv7e-m/fpu/libgcc.a(_udivmoddi4.o)
 .bss           0x0000000000000000        0x0 /opt/Atollic_TrueSTUDIO_for_STM32_x86_64_9.1.0/ARMTools/bin/../lib/gcc/arm-atollic-eabi/6.3.1/armv7e-m/fpu/libgcc.a(_udivmoddi4.o)
 .ARM.extab     0x0000000000000000        0x0 /opt/Atollic_TrueSTUDIO_for_STM32_x86_64_9.1.0/ARMTools/bin/../lib/gcc/arm-atollic-eabi/6.3.1/armv7e-m/fpu/libgcc.a(_udivmoddi4.o)
 .data          0x0000000000000000        0x0 /opt/Atollic_TrueSTUDIO_for_STM32_x86_64_9.1.0/ARMTools/bin/../lib/gcc/arm-atollic-eabi/6.3.1/armv7e-m/fpu/libgcc.a(_dvmd_tls.o)
 .bss           0x0000000000000000        0x0 /opt/Atollic_TrueSTUDIO_for_STM32_x86_64_9.1.0/ARMTools/bin/../lib/gcc/arm-atollic-eabi/6.3.1/armv7e-m/fpu/libgcc.a(_dvmd_tls.o)
 .text          0x0000000000000000        0x0 /opt/Atollic_TrueSTUDIO_for_STM32_x86_64_9.1.0/ARMTools/bin/../lib/gcc/arm-atollic-eabi/6.3.1/../../../../arm-atollic-eabi/lib/armv7e-m/fpu/libc.a(lib_a-memcpy-stub.o)
 .data          0x0000000000000000        0x0 /opt/Atollic_TrueSTUDIO_for_STM32_x86_64_9.1.0/ARMTools/bin/../lib/gcc/arm-atollic-eabi/6.3.1/../../../../arm-atollic-eabi/lib/armv7e-m/fpu/libc.a(lib_a-memcpy-stub.o)
 .bss           0x0000000000000000        0x0 /opt/Atollic_TrueSTUDIO_for_STM32_x86_64_9.1.0/ARMTools/bin/../lib/gcc/arm-atollic-eabi/6.3.1/../../../../arm-atollic-eabi/lib/armv7e-m/fpu/libc.a(lib_a-memcpy-stub.o)
 .text          0x0000000000000000        0x0 /opt/Atollic_TrueSTUDIO_for_STM32_x86_64_9.1.0/ARMTools/bin/../lib/gcc/arm-atollic-eabi/6.3.1/../../../../arm-atollic-eabi/lib/armv7e-m/fpu/libc.a(lib_a-memset.o)
 .data          0x0000000000000000        0x0 /opt/Atollic_TrueSTUDIO_for_STM32_x86_64_9.1.0/ARMTools/bin/../lib/gcc/arm-atollic-eabi/6.3.1/../../../../arm-atollic-eabi/lib/armv7e-m/fpu/libc.a(lib_a-memset.o)
 .bss           0x0000000000000000        0x0 /opt/Atollic_TrueSTUDIO_for_STM32_x86_64_9.1.0/ARMTools/bin/../lib/gcc/arm-atollic-eabi/6.3.1/../../../../arm-atollic-eabi/lib/armv7e-m/fpu/libc.a(lib_a-memset.o)
 .text          0x0000000000000000       0x14 /opt/Atollic_TrueSTUDIO_for_STM32_x86_64_9.1.0/ARMTools/bin/../lib/gcc/arm-atollic-eabi/6.3.1/../../../../arm-atollic-eabi/lib/armv7e-m/fpu/libc.a(lib_a-strcmp.o)
 .data          0x0000000000000000        0x0 /opt/Atollic_TrueSTUDIO_for_STM32_x86_64_9.1.0/ARMTools/bin/../lib/gcc/arm-atollic-eabi/6.3.1/../../../../arm-atollic-eabi/lib/armv7e-m/fpu/libc.a(lib_a-strcmp.o)
 .bss           0x0000000000000000        0x0 /opt/Atollic_TrueSTUDIO_for_STM32_x86_64_9.1.0/ARMTools/bin/../lib/gcc/arm-atollic-eabi/6.3.1/../../../../arm-atollic-eabi/lib/armv7e-m/fpu/libc.a(lib_a-strcmp.o)
 .debug_frame   0x0000000000000000       0x20 /opt/Atollic_TrueSTUDIO_for_STM32_x86_64_9.1.0/ARMTools/bin/../lib/gcc/arm-atollic-eabi/6.3.1/../../../../arm-atollic-eabi/lib/armv7e-m/fpu/libc.a(lib_a-strcmp.o)
 .ARM.attributes
                0x0000000000000000       0x20 /opt/Atollic_TrueSTUDIO_for_STM32_x86_64_9.1.0/ARMTools/bin/../lib/gcc/arm-atollic-eabi/6.3.1/../../../../arm-atollic-eabi/lib/armv7e-m/fpu/libc.a(lib_a-strcmp.o)
 .text          0x0000000000000000        0x0 /opt/Atollic_TrueSTUDIO_for_STM32_x86_64_9.1.0/ARMTools/bin/../lib/gcc/arm-atollic-eabi/6.3.1/../../../../arm-atollic-eabi/lib/armv7e-m/fpu/libc.a(lib_a-strncmp.o)
 .data          0x0000000000000000        0x0 /opt/Atollic_TrueSTUDIO_for_STM32_x86_64_9.1.0/ARMTools/bin/../lib/gcc/arm-atollic-eabi/6.3.1/../../../../arm-atollic-eabi/lib/armv7e-m/fpu/libc.a(lib_a-strncmp.o)
 .bss           0x0000000000000000        0x0 /opt/Atollic_TrueSTUDIO_for_STM32_x86_64_9.1.0/ARMTools/bin/../lib/gcc/arm-atollic-eabi/6.3.1/../../../../arm-atollic-eabi/lib/armv7e-m/fpu/libc.a(lib_a-strncmp.o)
 .text.strncmp  0x0000000000000000       0x24 /opt/Atollic_TrueSTUDIO_for_STM32_x86_64_9.1.0/ARMTools/bin/../lib/gcc/arm-atollic-eabi/6.3.1/../../../../arm-atollic-eabi/lib/armv7e-m/fpu/libc.a(lib_a-strncmp.o)
 .debug_frame   0x0000000000000000       0x28 /opt/Atollic_TrueSTUDIO_for_STM32_x86_64_9.1.0/ARMTools/bin/../lib/gcc/arm-atollic-eabi/6.3.1/../../../../arm-atollic-eabi/lib/armv7e-m/fpu/libc.a(lib_a-strncmp.o)
 .ARM.attributes
                0x0000000000000000       0x34 /opt/Atollic_TrueSTUDIO_for_STM32_x86_64_9.1.0/ARMTools/bin/../lib/gcc/arm-atollic-eabi/6.3.1/../../../../arm-atollic-eabi/lib/armv7e-m/fpu/libc.a(lib_a-strncmp.o)
 .text          0x0000000000000000        0x0 /opt/Atollic_TrueSTUDIO_for_STM32_x86_64_9.1.0/ARMTools/bin/../lib/gcc/arm-atollic-eabi/6.3.1/../../../../arm-atollic-eabi/lib/armv7e-m/fpu/libc.a(lib_a-strncpy.o)
 .data          0x0000000000000000        0x0 /opt/Atollic_TrueSTUDIO_for_STM32_x86_64_9.1.0/ARMTools/bin/../lib/gcc/arm-atollic-eabi/6.3.1/../../../../arm-atollic-eabi/lib/armv7e-m/fpu/libc.a(lib_a-strncpy.o)
 .bss           0x0000000000000000        0x0 /opt/Atollic_TrueSTUDIO_for_STM32_x86_64_9.1.0/ARMTools/bin/../lib/gcc/arm-atollic-eabi/6.3.1/../../../../arm-atollic-eabi/lib/armv7e-m/fpu/libc.a(lib_a-strncpy.o)
 .text.strncpy  0x0000000000000000       0x2a /opt/Atollic_TrueSTUDIO_for_STM32_x86_64_9.1.0/ARMTools/bin/../lib/gcc/arm-atollic-eabi/6.3.1/../../../../arm-atollic-eabi/lib/armv7e-m/fpu/libc.a(lib_a-strncpy.o)
 .debug_frame   0x0000000000000000       0x2c /opt/Atollic_TrueSTUDIO_for_STM32_x86_64_9.1.0/ARMTools/bin/../lib/gcc/arm-atollic-eabi/6.3.1/../../../../arm-atollic-eabi/lib/armv7e-m/fpu/libc.a(lib_a-strncpy.o)
 .ARM.attributes
                0x0000000000000000       0x34 /opt/Atollic_TrueSTUDIO_for_STM32_x86_64_9.1.0/ARMTools/bin/../lib/gcc/arm-atollic-eabi/6.3.1/../../../../arm-atollic-eabi/lib/armv7e-m/fpu/libc.a(lib_a-strncpy.o)

Memory Configuration

Name             Origin             Length             Attributes
flash0           0x0000000008000000 0x0000000000040000
flash1           0x0000000000000000 0x0000000000000000
flash2           0x0000000000000000 0x0000000000000000
flash3           0x0000000000000000 0x0000000000000000
flash4           0x0000000000000000 0x0000000000000000
flash5           0x0000000000000000 0x0000000000000000
flash6           0x0000000000000000 0x0000000000000000
flash7           0x0000000000000000 0x0000000000000000
ram0             0x0000000020000000 0x0000000000010000
ram1             0x0000000000000000 0x0000000000000000
ram2             0x0000000000000000 0x0000000000000000
ram3             0x0000000000000000 0x0000000000000000
ram4             0x0000000000000000 0x0000000000000000
ram5             0x0000000000000000 0x0000000000000000
ram6             0x0000000000000000 0x0000000000000000
ram7             0x0000000000000000 0x0000000000000000
*default*        0x0000000000000000 0xffffffffffffffff

Linker script and memory map

LOAD build/obj/crt0_v7m.o
LOAD build/obj/vectors.o
LOAD build/obj/chcoreasm_v7m.o
LOAD build/obj/crt1.o
LOAD /tmp/cceRjJvB.ltrans0.ltrans.o
LOAD /tmp/cceRjJvB.ltrans1.ltrans.o
LOAD /tmp/cceRjJvB.ltrans2.ltrans.o
LOAD /tmp/cceRjJvB.ltrans3.ltrans.o
LOAD /tmp/cceRjJvB.ltrans4.ltrans.o
LOAD /tmp/cceRjJvB.ltrans5.ltrans.o
LOAD /tmp/cceRjJvB.ltrans6.ltrans.o
LOAD /tmp/cceRjJvB.ltrans7.ltrans.o
LOAD /tmp/cceRjJvB.ltrans8.ltrans.o
LOAD /tmp/cceRjJvB.ltrans9.ltrans.o
LOAD build/obj/hal.o
LOAD build/obj/hal_st.o
LOAD build/obj/hal_buffers.o
LOAD build/obj/hal_queues.o
LOAD build/obj/hal_mmcsd.o
LOAD build/obj/hal_pal.o
LOAD build/obj/hal_serial.o
LOAD build/obj/hal_serial_usb.o
LOAD build/obj/hal_spi.o
LOAD build/obj/hal_uart.o
LOAD build/obj/hal_usb.o
LOAD build/obj/nvic.o
LOAD build/obj/stm32_isr.o
LOAD build/obj/hal_lld.o
LOAD build/obj/stm32_dma.o
LOAD build/obj/hal_pal_lld.o
LOAD build/obj/hal_usb_lld.o
LOAD build/obj/hal_spi_lld.o
LOAD build/obj/hal_st_lld.o
LOAD build/obj/hal_serial_lld.o
LOAD build/obj/hal_uart_lld.o
LOAD build/obj/board.o
LOAD build/obj/osal.o
LOAD build/obj/chsys.o
LOAD build/obj/chdebug.o
LOAD build/obj/chtrace.o
LOAD build/obj/chvt.o
LOAD build/obj/chschd.o
LOAD build/obj/chthreads.o
LOAD build/obj/chtm.o
LOAD build/obj/chregistry.o
LOAD build/obj/chsem.o
LOAD build/obj/chmtx.o
LOAD build/obj/chcond.o
LOAD build/obj/chevents.o
LOAD build/obj/chmsg.o
LOAD build/obj/chdynamic.o
LOAD build/obj/chmboxes.o
LOAD build/obj/chmemcore.o
LOAD build/obj/chheap.o
LOAD build/obj/chmempools.o
LOAD build/obj/chfactory.o
LOAD build/obj/chcore.o
LOAD build/obj/chcore_v7m.o
LOAD build/obj/l3gd20.o
LOAD build/obj/chprintf.o
LOAD build/obj/memstreams.o
LOAD build/obj/nullstreams.o
LOAD build/obj/usbcfg.o
LOAD build/obj/main.o
LOAD build/obj/mbcrc.o

.mstack         0x0000000020000000      0x400
                0x0000000020000000                . = ALIGN (0x8)
                0x0000000020000000                __main_stack_base__ = .
                0x0000000020000400                . = (. + __main_stack_size__)
 *fill*         0x0000000020000000      0x400 
                0x0000000020000400                . = ALIGN (0x8)
                0x0000000020000400                __main_stack_end__ = .

.pstack         0x0000000020000400      0x400
                0x0000000020000400                __process_stack_base__ = .
                0x0000000020000400                __main_thread_stack_base__ = .
                0x0000000020000800                . = (. + __process_stack_size__)
 *fill*         0x0000000020000400      0x400 
                0x0000000020000800                . = ALIGN (0x8)
                0x0000000020000800                __process_stack_end__ = .
                0x0000000020000800                __main_thread_stack_end__ = .

.vectors        0x0000000008000000      0x1e0
 *(.vectors)
 .vectors       0x0000000008000000      0x1e0 build/obj/vectors.o
                0x0000000008000000                _vectors

.xtors          0x00000000080001e0        0x0
                0x00000000080001e0                __init_array_start = .
 *(SORT(.init_array.*))
 *(.init_array)
                0x00000000080001e0                __init_array_end = .
                0x00000000080001e0                __fini_array_start = .
 *(.fini_array)
 *(SORT(.fini_array.*))
                0x00000000080001e0                __fini_array_end = .

.text           0x00000000080001e0     0x9016
 *(.text)
 .text          0x00000000080001e0      0x120 build/obj/crt0_v7m.o
                0x00000000080001e0                _crt0_entry
 .text          0x0000000008000300        0x8 build/obj/vectors.o
                0x0000000008000300                Reset_Handler
                0x0000000008000302                Vector58
                0x0000000008000302                VectorE8
                0x0000000008000302                Vector9C
                0x0000000008000302                VectorAC
                0x0000000008000302                DebugMon_Handler
                0x0000000008000302                Vector1A0
                0x0000000008000302                Vector5C
                0x0000000008000302                Vector11C
                0x0000000008000302                HardFault_Handler
                0x0000000008000302                Vector1B8
                0x0000000008000302                Vector19C
                0x0000000008000302                Vector8C
                0x0000000008000302                SysTick_Handler
                0x0000000008000302                VectorDC
                0x0000000008000302                PendSV_Handler
                0x0000000008000302                Vector168
                0x0000000008000302                NMI_Handler
                0x0000000008000302                Vector110
                0x0000000008000302                Vector1D8
                0x0000000008000302                VectorC8
                0x0000000008000302                Vector94
                0x0000000008000302                VectorA8
                0x0000000008000302                VectorB4
                0x0000000008000302                Vector160
                0x0000000008000302                Vector1B0
                0x0000000008000302                UsageFault_Handler
                0x0000000008000302                VectorEC
                0x0000000008000302                Vector40
                0x0000000008000302                VectorF8
                0x0000000008000302                Vector108
                0x0000000008000302                VectorBC
                0x0000000008000302                Vector190
                0x0000000008000302                Vector1C4
                0x0000000008000302                Vector1CC
                0x0000000008000302                Vector148
                0x0000000008000302                Vector188
                0x0000000008000302                Vector198
                0x0000000008000302                Vector118
                0x0000000008000302                Vector64
                0x0000000008000302                VectorCC
                0x0000000008000302                Vector54
                0x0000000008000302                Vector98
                0x0000000008000302                Vector138
                0x0000000008000302                Vector24
                0x0000000008000302                Vector1AC
                0x0000000008000302                Vector178
                0x0000000008000302                Vector1A4
                0x0000000008000302                VectorD0
                0x0000000008000302                Vector1B4
                0x0000000008000302                Vector140
                0x0000000008000302                VectorE4
                0x0000000008000302                VectorC0
                0x0000000008000302                Vector1C0
                0x0000000008000302                Vector134
                0x0000000008000302                Vector1D0
                0x0000000008000302                VectorF0
                0x0000000008000302                Vector13C
                0x0000000008000302                Vector100
                0x0000000008000302                VectorE0
                0x0000000008000302                VectorF4
                0x0000000008000302                MemManage_Handler
                0x0000000008000302                VectorA0
                0x0000000008000302                VectorC4
                0x0000000008000302                Vector180
                0x0000000008000302                Vector90
                0x0000000008000302                Vector114
                0x0000000008000302                Vector164
                0x0000000008000302                Vector60
                0x0000000008000302                Vector1C
                0x0000000008000302                Vector1BC
                0x0000000008000302                Vector1D4
                0x0000000008000302                Vector17C
                0x0000000008000302                Vector48
                0x0000000008000302                Vector1A8
                0x0000000008000302                Vector16C
                0x0000000008000302                Vector4C
                0x0000000008000302                Vector144
                0x0000000008000302                Vector68
                0x0000000008000302                Vector170
                0x0000000008000302                Vector88
                0x0000000008000302                Vector104
                0x0000000008000302                Vector184
                0x0000000008000302                Vector10C
                0x0000000008000302                BusFault_Handler
                0x0000000008000302                Vector50
                0x0000000008000302                Vector1C8
                0x0000000008000302                Vector194
                0x0000000008000302                Vector1DC
                0x0000000008000302                Vector44
                0x0000000008000302                Vector28
                0x0000000008000302                VectorB8
                0x0000000008000302                Vector34
                0x0000000008000302                VectorA4
                0x0000000008000302                Vector20
                0x0000000008000302                Vector18C
                0x0000000008000302                Vector174
                0x0000000008000306                _unhandled_exception
 .text          0x0000000008000308       0x30 build/obj/chcoreasm_v7m.o
                0x0000000008000308                _port_switch
                0x0000000008000320                _port_thread_start
                0x0000000008000330                _port_switch_from_isr
                0x0000000008000334                _port_exit_from_isr
 .text          0x0000000008000338      0x370 /opt/Atollic_TrueSTUDIO_for_STM32_x86_64_9.1.0/ARMTools/bin/../lib/gcc/arm-atollic-eabi/6.3.1/armv7e-m/fpu/libgcc.a(_arm_addsubdf3.o)
                0x0000000008000338                __aeabi_drsub
                0x0000000008000340                __aeabi_dsub
                0x0000000008000340                __subdf3
                0x0000000008000344                __adddf3
                0x0000000008000344                __aeabi_dadd
                0x00000000080005bc                __aeabi_ui2d
                0x00000000080005bc                __floatunsidf
                0x00000000080005dc                __floatsidf
                0x00000000080005dc                __aeabi_i2d
                0x0000000008000600                __extendsfdf2
                0x0000000008000600                __aeabi_f2d
                0x000000000800063c                __aeabi_ul2d
                0x000000000800063c                __floatundidf
                0x000000000800064c                __floatdidf
                0x000000000800064c                __aeabi_l2d
 .text          0x00000000080006a8      0x424 /opt/Atollic_TrueSTUDIO_for_STM32_x86_64_9.1.0/ARMTools/bin/../lib/gcc/arm-atollic-eabi/6.3.1/armv7e-m/fpu/libgcc.a(_arm_muldivdf3.o)
                0x00000000080006a8                __aeabi_dmul
                0x00000000080006a8                __muldf3
                0x00000000080008fc                __aeabi_ddiv
                0x00000000080008fc                __divdf3
 .text          0x0000000008000acc       0x50 /opt/Atollic_TrueSTUDIO_for_STM32_x86_64_9.1.0/ARMTools/bin/../lib/gcc/arm-atollic-eabi/6.3.1/armv7e-m/fpu/libgcc.a(_arm_fixdfsi.o)
                0x0000000008000acc                __fixdfsi
                0x0000000008000acc                __aeabi_d2iz
 .text          0x0000000008000b1c       0xa0 /opt/Atollic_TrueSTUDIO_for_STM32_x86_64_9.1.0/ARMTools/bin/../lib/gcc/arm-atollic-eabi/6.3.1/armv7e-m/fpu/libgcc.a(_arm_truncdfsf2.o)
                0x0000000008000b1c                __aeabi_d2f
                0x0000000008000b1c                __truncdfsf2
 .text          0x0000000008000bbc       0x30 /opt/Atollic_TrueSTUDIO_for_STM32_x86_64_9.1.0/ARMTools/bin/../lib/gcc/arm-atollic-eabi/6.3.1/armv7e-m/fpu/libgcc.a(_aeabi_uldivmod.o)
                0x0000000008000bbc                __aeabi_uldivmod
 .text          0x0000000008000bec      0x2dc /opt/Atollic_TrueSTUDIO_for_STM32_x86_64_9.1.0/ARMTools/bin/../lib/gcc/arm-atollic-eabi/6.3.1/armv7e-m/fpu/libgcc.a(_udivmoddi4.o)
                0x0000000008000bec                __udivmoddi4
 .text          0x0000000008000ec8        0x4 /opt/Atollic_TrueSTUDIO_for_STM32_x86_64_9.1.0/ARMTools/bin/../lib/gcc/arm-atollic-eabi/6.3.1/armv7e-m/fpu/libgcc.a(_dvmd_tls.o)
                0x0000000008000ec8                __aeabi_ldiv0
                0x0000000008000ec8                __aeabi_idiv0
 *(.text.*)
 .text.gyro_read_cooked
                0x0000000008000ecc       0x88 /tmp/cceRjJvB.ltrans0.ltrans.o
 .text.gyro_sample_bias
                0x0000000008000f54      0x110 /tmp/cceRjJvB.ltrans0.ltrans.o
 .text.gyro_set_bias
                0x0000000008001064       0x50 /tmp/cceRjJvB.ltrans0.ltrans.o
 .text.gyro_reset_bias
                0x00000000080010b4       0x48 /tmp/cceRjJvB.ltrans0.ltrans.o
 .text.gyro_set_sensivity
                0x00000000080010fc       0x52 /tmp/cceRjJvB.ltrans0.ltrans.o
 *fill*         0x000000000800114e        0x2 
 .text.gyro_reset_sensivity
                0x0000000008001150       0xc4 /tmp/cceRjJvB.ltrans0.ltrans.o
 .text.gyro_set_full_scale
                0x0000000008001214      0x114 /tmp/cceRjJvB.ltrans0.ltrans.o
 .text.l3gd20ObjectInit
                0x0000000008001328       0x34 /tmp/cceRjJvB.ltrans0.ltrans.o
 .text.l3gd20Start
                0x000000000800135c      0x1ec /tmp/cceRjJvB.ltrans0.ltrans.o
 .text.long_to_string_with_divisor
                0x0000000008001548       0xaa /tmp/cceRjJvB.ltrans0.ltrans.o
 .text.ch_ltoa  0x00000000080015f2       0x22 /tmp/cceRjJvB.ltrans0.ltrans.o
 .text.ftoa     0x0000000008001614       0xb4 /tmp/cceRjJvB.ltrans0.ltrans.o
 .text.chvprintf
                0x00000000080016c8      0x4b0 /tmp/cceRjJvB.ltrans0.ltrans.o
 .text.chprintf
                0x0000000008001b78       0x2c /tmp/cceRjJvB.ltrans0.ltrans.o
 .text.port_lock.lto_priv.2
                0x0000000008001ba4       0x1a /tmp/cceRjJvB.ltrans0.ltrans.o
 .text.port_unlock.lto_priv.0
                0x0000000008001bbe       0x1a /tmp/cceRjJvB.ltrans0.ltrans.o
 .text.port_lock_from_isr
                0x0000000008001bd8        0xa /tmp/cceRjJvB.ltrans0.ltrans.o
 .text.port_unlock_from_isr
                0x0000000008001be2        0xa /tmp/cceRjJvB.ltrans0.ltrans.o
 .text.chSysLockFromISR
                0x0000000008001bec        0xa /tmp/cceRjJvB.ltrans0.ltrans.o
 .text.chSysUnlockFromISR
                0x0000000008001bf6        0xa /tmp/cceRjJvB.ltrans0.ltrans.o
 .text.osalSysLockFromISR
                0x0000000008001c00        0xa /tmp/cceRjJvB.ltrans0.ltrans.o
 .text.osalSysUnlockFromISR
                0x0000000008001c0a        0xa /tmp/cceRjJvB.ltrans0.ltrans.o
 .text.get_descriptor
                0x0000000008001c14       0x5c /tmp/cceRjJvB.ltrans0.ltrans.o
 .text.usb_event
                0x0000000008001c70       0x88 /tmp/cceRjJvB.ltrans0.ltrans.o
 .text.sof_handler
                0x0000000008001cf8       0x20 /tmp/cceRjJvB.ltrans0.ltrans.o
 .text.port_lock.lto_priv.3
                0x0000000008001d18       0x1a /tmp/cceRjJvB.ltrans0.ltrans.o
 .text.port_unlock.lto_priv.1
                0x0000000008001d32       0x1a /tmp/cceRjJvB.ltrans0.ltrans.o
 .text.st_lld_get_counter
                0x0000000008001d4c       0x14 /tmp/cceRjJvB.ltrans0.ltrans.o
 .text.port_timer_get_time
                0x0000000008001d60        0xe /tmp/cceRjJvB.ltrans0.ltrans.o
 .text.chSysLock
                0x0000000008001d6e        0xa /tmp/cceRjJvB.ltrans0.ltrans.o
 .text.chSysUnlock
                0x0000000008001d78        0xa /tmp/cceRjJvB.ltrans0.ltrans.o
 .text.chVTGetSystemTimeX
                0x0000000008001d82        0xe /tmp/cceRjJvB.ltrans0.ltrans.o
 .text.chVTGetSystemTime
                0x0000000008001d90       0x1e /tmp/cceRjJvB.ltrans0.ltrans.o
 *fill*         0x0000000008001dae        0x2 
 .text.chRegSetThreadName
                0x0000000008001db0       0x20 /tmp/cceRjJvB.ltrans0.ltrans.o
 .text.chBSemObjectInit
                0x0000000008001dd0       0x24 /tmp/cceRjJvB.ltrans0.ltrans.o
 .text.chBSemWait
                0x0000000008001df4       0x1a /tmp/cceRjJvB.ltrans0.ltrans.o
 .text.chBSemSignalI
                0x0000000008001e0e       0x1e /tmp/cceRjJvB.ltrans0.ltrans.o
 .text.chBSemSignal
                0x0000000008001e2c       0x20 /tmp/cceRjJvB.ltrans0.ltrans.o
 .text.rxend    0x0000000008001e4c       0x18 /tmp/cceRjJvB.ltrans0.ltrans.o
 .text.Thread1  0x0000000008001e64      0x174 /tmp/cceRjJvB.ltrans0.ltrans.o
 .text.main     0x0000000008001fd8      0x1f0 /tmp/cceRjJvB.ltrans0.ltrans.o
                0x0000000008001fd8                main
 .text.timer_expired
                0x00000000080021c8       0x10 /tmp/cceRjJvB.ltrans0.ltrans.o
 .text.stop_timer
                0x00000000080021d8       0x18 /tmp/cceRjJvB.ltrans0.ltrans.o
 .text.restart_timer
                0x00000000080021f0       0x14 /tmp/cceRjJvB.ltrans0.ltrans.o
 .text.construct_response
                0x0000000008002204       0x6a /tmp/cceRjJvB.ltrans0.ltrans.o
 *fill*         0x000000000800226e        0x2 
 .text.send_response
                0x0000000008002270       0x24 /tmp/cceRjJvB.ltrans0.ltrans.o
 .text.is_frame_valid
                0x0000000008002294       0x4c /tmp/cceRjJvB.ltrans0.ltrans.o
 .text.process_request
                0x00000000080022e0       0x5c /tmp/cceRjJvB.ltrans0.ltrans.o
 .text.poll_uart_for_character
                0x000000000800233c       0x2c /tmp/cceRjJvB.ltrans0.ltrans.o
 .text.handle_rx_packet
                0x0000000008002368       0xac /tmp/cceRjJvB.ltrans0.ltrans.o
 .text.modbus_driver_thread
                0x0000000008002414       0xac /tmp/cceRjJvB.ltrans0.ltrans.o
 .text.usMBCRC16
                0x00000000080024c0       0x64 /tmp/cceRjJvB.ltrans0.ltrans.o
 .text.port_lock.lto_priv.37
                0x0000000008002524       0x1a /tmp/cceRjJvB.ltrans1.ltrans.o
 .text.port_unlock.lto_priv.34
                0x000000000800253e       0x1a /tmp/cceRjJvB.ltrans1.ltrans.o
 .text.chSysLock.lto_priv.42
                0x0000000008002558        0xa /tmp/cceRjJvB.ltrans1.ltrans.o
 .text.chSysUnlock.lto_priv.40
                0x0000000008002562        0xa /tmp/cceRjJvB.ltrans1.ltrans.o
 .text._core_init
                0x000000000800256c       0x24 /tmp/cceRjJvB.ltrans1.ltrans.o
                0x000000000800256c                _core_init
 .text.chCoreAllocAlignedWithOffsetI
                0x0000000008002590       0x6c /tmp/cceRjJvB.ltrans1.ltrans.o
 .text.chCoreAllocAlignedWithOffset
                0x00000000080025fc       0x2a /tmp/cceRjJvB.ltrans1.ltrans.o
 *fill*         0x0000000008002626        0x2 
 .text._heap_init
                0x0000000008002628       0x2c /tmp/cceRjJvB.ltrans1.ltrans.o
                0x0000000008002628                _heap_init
 .text.chPoolObjectInitAligned
                0x0000000008002654       0x30 /tmp/cceRjJvB.ltrans1.ltrans.o
 .text.chCoreAllocAlignedI
                0x0000000008002684       0x1e /tmp/cceRjJvB.ltrans1.ltrans.o
 .text.chPoolObjectInit
                0x00000000080026a2       0x1e /tmp/cceRjJvB.ltrans1.ltrans.o
 .text.dyn_list_init
                0x00000000080026c0       0x18 /tmp/cceRjJvB.ltrans1.ltrans.o
 .text._factory_init
                0x00000000080026d8       0x64 /tmp/cceRjJvB.ltrans1.ltrans.o
                0x00000000080026d8                _factory_init
 .text.port_lock.lto_priv.39
                0x000000000800273c       0x1a /tmp/cceRjJvB.ltrans1.ltrans.o
 .text.port_unlock.lto_priv.36
                0x0000000008002756       0x1a /tmp/cceRjJvB.ltrans1.ltrans.o
 .text.port_lock_from_isr
                0x0000000008002770        0xa /tmp/cceRjJvB.ltrans1.ltrans.o
 .text.port_unlock_from_isr
                0x000000000800277a        0xa /tmp/cceRjJvB.ltrans1.ltrans.o
 .text.SVC_Handler
                0x0000000008002784       0x3c /tmp/cceRjJvB.ltrans1.ltrans.o
                0x0000000008002784                SVC_Handler
 .text._port_irq_epilogue
                0x00000000080027c0       0x7c /tmp/cceRjJvB.ltrans1.ltrans.o
                0x00000000080027c0                _port_irq_epilogue
 .text.osalThreadSleep.lto_priv.32
                0x000000000800283c       0x14 /tmp/cceRjJvB.ltrans1.ltrans.o
                0x000000000800283c                osalThreadSleep.lto_priv.32
 .text.l3gd20SPIReadRegister.lto_priv.33
                0x0000000008002850       0x56 /tmp/cceRjJvB.ltrans1.ltrans.o
                0x0000000008002850                l3gd20SPIReadRegister.lto_priv.33
 .text.l3gd20SPIWriteRegister.lto_priv.31
                0x00000000080028a6       0x50 /tmp/cceRjJvB.ltrans1.ltrans.o
                0x00000000080028a6                l3gd20SPIWriteRegister.lto_priv.31
 .text.gyro_get_axes_number.lto_priv.14
                0x00000000080028f6       0x16 /tmp/cceRjJvB.ltrans1.ltrans.o
                0x00000000080028f6                gyro_get_axes_number.lto_priv.14
 .text.gyro_read_raw.lto_priv.15
                0x000000000800290c       0x82 /tmp/cceRjJvB.ltrans1.ltrans.o
                0x000000000800290c                gyro_read_raw.lto_priv.15
 .text.chMtxObjectInit
                0x000000000800298e       0x1c /tmp/cceRjJvB.ltrans2.ltrans.o
                0x000000000800298e                chMtxObjectInit
 .text.chMtxLock
                0x00000000080029aa       0x1c /tmp/cceRjJvB.ltrans2.ltrans.o
                0x00000000080029aa                chMtxLock
 *fill*         0x00000000080029c6        0x2 
 .text.chMtxLockS
                0x00000000080029c8       0xc0 /tmp/cceRjJvB.ltrans2.ltrans.o
 .text.chMtxUnlock
                0x0000000008002a88       0xa4 /tmp/cceRjJvB.ltrans2.ltrans.o
                0x0000000008002a88                chMtxUnlock
 .text.chEvtBroadcastFlagsI
                0x0000000008002b2c       0x56 /tmp/cceRjJvB.ltrans2.ltrans.o
                0x0000000008002b2c                chEvtBroadcastFlagsI
 .text.chEvtSignalI
                0x0000000008002b82       0x5c /tmp/cceRjJvB.ltrans2.ltrans.o
 *fill*         0x0000000008002bde        0x2 
 .text._thread_init
                0x0000000008002be0       0x80 /tmp/cceRjJvB.ltrans3.ltrans.o
                0x0000000008002be0                _thread_init
 .text.chThdCreateSuspendedI
                0x0000000008002c60       0x5c /tmp/cceRjJvB.ltrans3.ltrans.o
                0x0000000008002c60                chThdCreateSuspendedI
 .text.chThdCreate
                0x0000000008002cbc       0x2a /tmp/cceRjJvB.ltrans3.ltrans.o
                0x0000000008002cbc                chThdCreate
 *fill*         0x0000000008002ce6        0x2 
 .text.chThdCreateStatic
                0x0000000008002ce8       0x70 /tmp/cceRjJvB.ltrans3.ltrans.o
                0x0000000008002ce8                chThdCreateStatic
 .text.chThdExit
                0x0000000008002d58       0x18 /tmp/cceRjJvB.ltrans3.ltrans.o
                0x0000000008002d58                chThdExit
 .text.chThdExitS
                0x0000000008002d70       0x74 /tmp/cceRjJvB.ltrans3.ltrans.o
 .text.chThdSleep
                0x0000000008002de4       0x1c /tmp/cceRjJvB.ltrans3.ltrans.o
                0x0000000008002de4                chThdSleep
 .text.chThdSuspendTimeoutS
                0x0000000008002e00       0x3a /tmp/cceRjJvB.ltrans3.ltrans.o
                0x0000000008002e00                chThdSuspendTimeoutS
 .text.chThdResumeI
                0x0000000008002e3a       0x30 /tmp/cceRjJvB.ltrans3.ltrans.o
                0x0000000008002e3a                chThdResumeI
 *fill*         0x0000000008002e6a        0x2 
 .text.chThdEnqueueTimeoutS
                0x0000000008002e6c       0x38 /tmp/cceRjJvB.ltrans3.ltrans.o
                0x0000000008002e6c                chThdEnqueueTimeoutS
 .text.chThdDequeueNextI
                0x0000000008002ea4       0x24 /tmp/cceRjJvB.ltrans3.ltrans.o
                0x0000000008002ea4                chThdDequeueNextI
 .text.chThdDequeueAllI
                0x0000000008002ec8       0x26 /tmp/cceRjJvB.ltrans3.ltrans.o
                0x0000000008002ec8                chThdDequeueAllI
 *fill*         0x0000000008002eee        0x2 
 .text.port_rt_get_counter_value
                0x0000000008002ef0       0x18 /tmp/cceRjJvB.ltrans3.ltrans.o
 .text.tm_stop  0x0000000008002f08       0x70 /tmp/cceRjJvB.ltrans3.ltrans.o
 .text._tm_init
                0x0000000008002f78       0x34 /tmp/cceRjJvB.ltrans3.ltrans.o
                0x0000000008002f78                _tm_init
 .text.chTMObjectInit
                0x0000000008002fac       0x38 /tmp/cceRjJvB.ltrans3.ltrans.o
 .text.chTMStartMeasurementX
                0x0000000008002fe4       0x18 /tmp/cceRjJvB.ltrans3.ltrans.o
 .text.chTMStopMeasurementX
                0x0000000008002ffc       0x24 /tmp/cceRjJvB.ltrans3.ltrans.o
 .text.port_lock.lto_priv.84
                0x0000000008003020       0x1a /tmp/cceRjJvB.ltrans3.ltrans.o
 .text.port_unlock.lto_priv.81
                0x000000000800303a       0x1a /tmp/cceRjJvB.ltrans3.ltrans.o
 .text.queue_init.lto_priv.95
                0x0000000008003054       0x1e /tmp/cceRjJvB.ltrans3.ltrans.o
 .text.queue_insert.lto_priv.93
                0x0000000008003072       0x30 /tmp/cceRjJvB.ltrans3.ltrans.o
 .text.queue_fifo_remove
                0x00000000080030a2       0x2c /tmp/cceRjJvB.ltrans3.ltrans.o
 .text.chSysLock.lto_priv.91
                0x00000000080030ce        0xa /tmp/cceRjJvB.ltrans3.ltrans.o
 .text.chSysUnlock.lto_priv.88
                0x00000000080030d8        0xa /tmp/cceRjJvB.ltrans3.ltrans.o
 .text.chSemObjectInit
                0x00000000080030e2       0x1e /tmp/cceRjJvB.ltrans3.ltrans.o
                0x00000000080030e2                chSemObjectInit
 .text.chSemWait
                0x0000000008003100       0x22 /tmp/cceRjJvB.ltrans3.ltrans.o
                0x0000000008003100                chSemWait
 *fill*         0x0000000008003122        0x2 
 .text.chSemWaitS
                0x0000000008003124       0x4c /tmp/cceRjJvB.ltrans3.ltrans.o
 .text.chSemSignalI
                0x0000000008003170       0x36 /tmp/cceRjJvB.ltrans3.ltrans.o
                0x0000000008003170                chSemSignalI
 .text.port_lock.lto_priv.85
                0x00000000080031a6       0x1a /tmp/cceRjJvB.ltrans3.ltrans.o
 .text.port_unlock.lto_priv.82
                0x00000000080031c0       0x1a /tmp/cceRjJvB.ltrans3.ltrans.o
 .text.queue_init.lto_priv.58
                0x00000000080031da       0x1e /tmp/cceRjJvB.ltrans3.ltrans.o
                0x00000000080031da                queue_init.lto_priv.58
 .text.queue_notempty.lto_priv.79
                0x00000000080031f8       0x24 /tmp/cceRjJvB.ltrans3.ltrans.o
 .text.queue_prio_insert.lto_priv.74
                0x000000000800321c       0x4e /tmp/cceRjJvB.ltrans3.ltrans.o
                0x000000000800321c                queue_prio_insert.lto_priv.74
 .text.queue_fifo_remove.lto_priv.71
                0x000000000800326a       0x2c /tmp/cceRjJvB.ltrans3.ltrans.o
                0x000000000800326a                queue_fifo_remove.lto_priv.71
 .text.queue_dequeue.lto_priv.77
                0x0000000008003296       0x2a /tmp/cceRjJvB.ltrans3.ltrans.o
                0x0000000008003296                queue_dequeue.lto_priv.77
 .text.chSysLock.lto_priv.52
                0x00000000080032c0        0xa /tmp/cceRjJvB.ltrans3.ltrans.o
                0x00000000080032c0                chSysLock.lto_priv.52
 .text.chSysUnlock.lto_priv.46
                0x00000000080032ca        0xa /tmp/cceRjJvB.ltrans3.ltrans.o
                0x00000000080032ca                chSysUnlock.lto_priv.46
 .text.chMtxQueueNotEmptyS.lto_priv.76
                0x00000000080032d4       0x1a /tmp/cceRjJvB.ltrans3.ltrans.o
                0x00000000080032d4                chMtxQueueNotEmptyS.lto_priv.76
 *fill*         0x00000000080032ee        0x2 
 .text.Vector15C
                0x00000000080032f0       0x14 /tmp/cceRjJvB.ltrans4.ltrans.o
                0x00000000080032f0                Vector15C
 .text.uart_lld_init
                0x0000000008003304       0x30 /tmp/cceRjJvB.ltrans4.ltrans.o
                0x0000000008003304                uart_lld_init
 .text.uart_lld_start
                0x0000000008003334       0xd0 /tmp/cceRjJvB.ltrans4.ltrans.o
                0x0000000008003334                uart_lld_start
 .text.uart_lld_start_send
                0x0000000008003404       0x72 /tmp/cceRjJvB.ltrans4.ltrans.o
                0x0000000008003404                uart_lld_start_send
 .text.gpio_init
                0x0000000008003476       0x4c /tmp/cceRjJvB.ltrans4.ltrans.o
 *fill*         0x00000000080034c2        0x2 
 .text.stm32_gpio_init
                0x00000000080034c4       0x94 /tmp/cceRjJvB.ltrans4.ltrans.o
 .text.__early_init
                0x0000000008003558        0xe /tmp/cceRjJvB.ltrans4.ltrans.o
                0x0000000008003558                __early_init
 .text.boardInit
                0x0000000008003566        0xc /tmp/cceRjJvB.ltrans4.ltrans.o
                0x0000000008003566                boardInit
 .text.chTimeAddX.lto_priv.139
                0x0000000008003572       0x1c /tmp/cceRjJvB.ltrans4.ltrans.o
 .text.chTimeDiffX.lto_priv.137
                0x000000000800358e       0x1c /tmp/cceRjJvB.ltrans4.ltrans.o
 *fill*         0x00000000080035aa        0x2 
 .text.__NVIC_SetPriorityGrouping
                0x00000000080035ac       0x48 /tmp/cceRjJvB.ltrans4.ltrans.o
 .text.__NVIC_SetPriority
                0x00000000080035f4       0x54 /tmp/cceRjJvB.ltrans4.ltrans.o
 .text.port_init
                0x0000000008003648       0x40 /tmp/cceRjJvB.ltrans4.ltrans.o
 .text.port_lock.lto_priv.120
                0x0000000008003688       0x1a /tmp/cceRjJvB.ltrans4.ltrans.o
 .text.port_unlock.lto_priv.117
                0x00000000080036a2       0x1a /tmp/cceRjJvB.ltrans4.ltrans.o
 .text.port_lock_from_isr.lto_priv.129
                0x00000000080036bc        0xa /tmp/cceRjJvB.ltrans4.ltrans.o
 .text.port_unlock_from_isr.lto_priv.127
                0x00000000080036c6        0xa /tmp/cceRjJvB.ltrans4.ltrans.o
 .text.port_disable
                0x00000000080036d0        0xe /tmp/cceRjJvB.ltrans4.ltrans.o
 .text.port_enable
                0x00000000080036de       0x1c /tmp/cceRjJvB.ltrans4.ltrans.o
 .text.port_wait_for_interrupt
                0x00000000080036fa        0xc /tmp/cceRjJvB.ltrans4.ltrans.o
 *fill*         0x0000000008003706        0x2 
 .text.port_rt_get_counter_value
                0x0000000008003708       0x18 /tmp/cceRjJvB.ltrans4.ltrans.o
 .text.st_lld_get_counter.lto_priv.114
                0x0000000008003720       0x14 /tmp/cceRjJvB.ltrans4.ltrans.o
 .text.port_timer_stop_alarm.lto_priv.135
                0x0000000008003734        0xa /tmp/cceRjJvB.ltrans4.ltrans.o
 .text.port_timer_set_alarm.lto_priv.133
                0x000000000800373e       0x14 /tmp/cceRjJvB.ltrans4.ltrans.o
 .text.port_timer_get_time.lto_priv.111
                0x0000000008003752        0xe /tmp/cceRjJvB.ltrans4.ltrans.o
 .text.chSysEnable
                0x0000000008003760        0xa /tmp/cceRjJvB.ltrans4.ltrans.o
 .text.chSysLockFromISR.lto_priv.125
                0x000000000800376a        0xa /tmp/cceRjJvB.ltrans4.ltrans.o
 .text.chSysUnlockFromISR.lto_priv.123
                0x0000000008003774        0xa /tmp/cceRjJvB.ltrans4.ltrans.o
 .text.chVTGetSystemTimeX.lto_priv.131
                0x000000000800377e        0xe /tmp/cceRjJvB.ltrans4.ltrans.o
 .text.chVTDoTickI
                0x000000000800378c       0xfc /tmp/cceRjJvB.ltrans4.ltrans.o
 .text._idle_thread.lto_priv.16
                0x0000000008003888        0xe /tmp/cceRjJvB.ltrans4.ltrans.o
                0x0000000008003888                _idle_thread.lto_priv.16
 *fill*         0x0000000008003896        0x2 
 .text.chSysInit
                0x0000000008003898       0x60 /tmp/cceRjJvB.ltrans4.ltrans.o
                0x0000000008003898                chSysInit
 .text.chSysHalt
                0x00000000080038f8       0x18 /tmp/cceRjJvB.ltrans4.ltrans.o
                0x00000000080038f8                chSysHalt
 .text.chSysTimerHandlerI
                0x0000000008003910        0xa /tmp/cceRjJvB.ltrans4.ltrans.o
                0x0000000008003910                chSysTimerHandlerI
 .text.chSysIsCounterWithinX
                0x000000000800391a       0x2e /tmp/cceRjJvB.ltrans4.ltrans.o
 .text.chSysPolledDelayX
                0x0000000008003948       0x32 /tmp/cceRjJvB.ltrans4.ltrans.o
                0x0000000008003948                chSysPolledDelayX
 .text.chTimeAddX.lto_priv.140
                0x000000000800397a       0x1c /tmp/cceRjJvB.ltrans4.ltrans.o
 .text.chTimeDiffX.lto_priv.138
                0x0000000008003996       0x1c /tmp/cceRjJvB.ltrans4.ltrans.o
 .text.st_lld_get_counter.lto_priv.115
                0x00000000080039b2       0x14 /tmp/cceRjJvB.ltrans4.ltrans.o
 .text.port_timer_start_alarm
                0x00000000080039c6       0x14 /tmp/cceRjJvB.ltrans4.ltrans.o
 .text.port_timer_stop_alarm.lto_priv.136
                0x00000000080039da        0xa /tmp/cceRjJvB.ltrans4.ltrans.o
 .text.port_timer_set_alarm.lto_priv.134
                0x00000000080039e4       0x14 /tmp/cceRjJvB.ltrans4.ltrans.o
 .text.port_timer_get_time.lto_priv.112
                0x00000000080039f8        0xe /tmp/cceRjJvB.ltrans4.ltrans.o
 .text.chVTGetSystemTimeX.lto_priv.132
                0x0000000008003a06        0xe /tmp/cceRjJvB.ltrans4.ltrans.o
 .text._vt_init
                0x0000000008003a14       0x30 /tmp/cceRjJvB.ltrans4.ltrans.o
 .text.chVTDoSetI
                0x0000000008003a44      0x134 /tmp/cceRjJvB.ltrans4.ltrans.o
 .text.chVTDoResetI
                0x0000000008003b78       0xec /tmp/cceRjJvB.ltrans4.ltrans.o
 .text.port_lock.lto_priv.121
                0x0000000008003c64       0x1a /tmp/cceRjJvB.ltrans4.ltrans.o
 .text.port_unlock.lto_priv.118
                0x0000000008003c7e       0x1a /tmp/cceRjJvB.ltrans4.ltrans.o
 .text.port_lock_from_isr.lto_priv.130
                0x0000000008003c98        0xa /tmp/cceRjJvB.ltrans4.ltrans.o
 .text.port_unlock_from_isr.lto_priv.128
                0x0000000008003ca2        0xa /tmp/cceRjJvB.ltrans4.ltrans.o
 .text.queue_init
                0x0000000008003cac       0x1e /tmp/cceRjJvB.ltrans4.ltrans.o
 .text.queue_fifo_remove.lto_priv.109
                0x0000000008003cca       0x2c /tmp/cceRjJvB.ltrans4.ltrans.o
 .text.queue_dequeue
                0x0000000008003cf6       0x2a /tmp/cceRjJvB.ltrans4.ltrans.o
 .text.chSchIsRescRequiredI
                0x0000000008003d20       0x28 /tmp/cceRjJvB.ltrans4.ltrans.o
 .text.chSysLockFromISR.lto_priv.126
                0x0000000008003d48        0xa /tmp/cceRjJvB.ltrans4.ltrans.o
 .text.chSysUnlockFromISR.lto_priv.124
                0x0000000008003d52        0xa /tmp/cceRjJvB.ltrans4.ltrans.o
 .text.chVTIsArmedI
                0x0000000008003d5c       0x22 /tmp/cceRjJvB.ltrans4.ltrans.o
 .text.chSemFastSignalI
                0x0000000008003d7e       0x1c /tmp/cceRjJvB.ltrans4.ltrans.o
 *fill*         0x0000000008003d9a        0x2 
 .text._scheduler_init
                0x0000000008003d9c       0x24 /tmp/cceRjJvB.ltrans4.ltrans.o
 .text.chSchReadyI
                0x0000000008003dc0       0x54 /tmp/cceRjJvB.ltrans4.ltrans.o
                0x0000000008003dc0                chSchReadyI
 .text.chSchReadyAheadI
                0x0000000008003e14       0x54 /tmp/cceRjJvB.ltrans4.ltrans.o
 .text.chSchGoSleepS
                0x0000000008003e68       0x44 /tmp/cceRjJvB.ltrans4.ltrans.o
                0x0000000008003e68                chSchGoSleepS
 .text.wakeup   0x0000000008003eac       0x78 /tmp/cceRjJvB.ltrans4.ltrans.o
 .text.chSchGoSleepTimeoutS
                0x0000000008003f24       0x68 /tmp/cceRjJvB.ltrans4.ltrans.o
                0x0000000008003f24                chSchGoSleepTimeoutS
 .text.chSchWakeupS
                0x0000000008003f8c       0x54 /tmp/cceRjJvB.ltrans4.ltrans.o
                0x0000000008003f8c                chSchWakeupS
 .text.chSchRescheduleS
                0x0000000008003fe0       0x14 /tmp/cceRjJvB.ltrans4.ltrans.o
                0x0000000008003fe0                chSchRescheduleS
 .text.chSchIsPreemptionRequired
                0x0000000008003ff4       0x34 /tmp/cceRjJvB.ltrans4.ltrans.o
                0x0000000008003ff4                chSchIsPreemptionRequired
 .text.chSchDoRescheduleAhead
                0x0000000008004028       0x40 /tmp/cceRjJvB.ltrans4.ltrans.o
 .text.chSchDoReschedule
                0x0000000008004068       0x40 /tmp/cceRjJvB.ltrans4.ltrans.o
                0x0000000008004068                chSchDoReschedule
 .text.port_lock.lto_priv.122
                0x00000000080040a8       0x1a /tmp/cceRjJvB.ltrans4.ltrans.o
 .text.port_unlock.lto_priv.119
                0x00000000080040c2       0x1a /tmp/cceRjJvB.ltrans4.ltrans.o
 .text.list_init.lto_priv.108
                0x00000000080040dc       0x18 /tmp/cceRjJvB.ltrans4.ltrans.o
                0x00000000080040dc                list_init.lto_priv.108
 .text.list_notempty.lto_priv.106
                0x00000000080040f4       0x24 /tmp/cceRjJvB.ltrans4.ltrans.o
                0x00000000080040f4                list_notempty.lto_priv.106
 .text.queue_init.lto_priv.94
                0x0000000008004118       0x1e /tmp/cceRjJvB.ltrans4.ltrans.o
                0x0000000008004118                queue_init.lto_priv.94
 .text.queue_notempty.lto_priv.78
                0x0000000008004136       0x24 /tmp/cceRjJvB.ltrans4.ltrans.o
                0x0000000008004136                queue_notempty.lto_priv.78
 .text.list_remove.lto_priv.107
                0x000000000800415a       0x24 /tmp/cceRjJvB.ltrans4.ltrans.o
                0x000000000800415a                list_remove.lto_priv.107
 .text.queue_insert.lto_priv.92
                0x000000000800417e       0x30 /tmp/cceRjJvB.ltrans4.ltrans.o
                0x000000000800417e                queue_insert.lto_priv.92
 .text.queue_fifo_remove.lto_priv.110
                0x00000000080041ae       0x2c /tmp/cceRjJvB.ltrans4.ltrans.o
 .text.chSysLock.lto_priv.89
                0x00000000080041da        0xa /tmp/cceRjJvB.ltrans4.ltrans.o
                0x00000000080041da                chSysLock.lto_priv.89
 .text.chSysUnlock.lto_priv.86
                0x00000000080041e4        0xa /tmp/cceRjJvB.ltrans4.ltrans.o
                0x00000000080041e4                chSysUnlock.lto_priv.86
 *fill*         0x00000000080041ee        0x2 
 .text.chThdGetSelfX.lto_priv.99
                0x00000000080041f0       0x18 /tmp/cceRjJvB.ltrans4.ltrans.o
                0x00000000080041f0                chThdGetSelfX.lto_priv.99
 .text.chThdSleepS.lto_priv.101
                0x0000000008004208       0x16 /tmp/cceRjJvB.ltrans4.ltrans.o
                0x0000000008004208                chThdSleepS.lto_priv.101
 .text.chThdDoDequeueNextI.lto_priv.98
                0x000000000800421e       0x24 /tmp/cceRjJvB.ltrans4.ltrans.o
                0x000000000800421e                chThdDoDequeueNextI.lto_priv.98
 .text.usb_lld_start_in
                0x0000000008004242      0x14a /tmp/cceRjJvB.ltrans5.ltrans.o
                0x0000000008004242                usb_lld_start_in
 .text.usb_lld_stall_out
                0x000000000800438c       0x36 /tmp/cceRjJvB.ltrans5.ltrans.o
                0x000000000800438c                usb_lld_stall_out
 .text.usb_lld_stall_in
                0x00000000080043c2       0x36 /tmp/cceRjJvB.ltrans5.ltrans.o
                0x00000000080043c2                usb_lld_stall_in
 .text.usb_lld_clear_out
                0x00000000080043f8       0x36 /tmp/cceRjJvB.ltrans5.ltrans.o
                0x00000000080043f8                usb_lld_clear_out
 .text.usb_lld_clear_in
                0x000000000800442e       0x36 /tmp/cceRjJvB.ltrans5.ltrans.o
                0x000000000800442e                usb_lld_clear_in
 .text.port_lock.lto_priv.173
                0x0000000008004464       0x1a /tmp/cceRjJvB.ltrans5.ltrans.o
 .text.port_unlock.lto_priv.170
                0x000000000800447e       0x1a /tmp/cceRjJvB.ltrans5.ltrans.o
 .text.port_lock_from_isr.lto_priv.167
                0x0000000008004498        0xa /tmp/cceRjJvB.ltrans5.ltrans.o
 .text.port_unlock_from_isr.lto_priv.164
                0x00000000080044a2        0xa /tmp/cceRjJvB.ltrans5.ltrans.o
 .text.chSysLockFromISR.lto_priv.161
                0x00000000080044ac        0xa /tmp/cceRjJvB.ltrans5.ltrans.o
 .text.chSysUnlockFromISR.lto_priv.158
                0x00000000080044b6        0xa /tmp/cceRjJvB.ltrans5.ltrans.o
 .text.osalSysHalt.lto_priv.149
                0x00000000080044c0       0x14 /tmp/cceRjJvB.ltrans5.ltrans.o
 .text.osalSysLockFromISR.lto_priv.155
                0x00000000080044d4        0xa /tmp/cceRjJvB.ltrans5.ltrans.o
 .text.osalSysUnlockFromISR.lto_priv.152
                0x00000000080044de        0xa /tmp/cceRjJvB.ltrans5.ltrans.o
 .text.osalThreadResumeI
                0x00000000080044e8       0x18 /tmp/cceRjJvB.ltrans5.ltrans.o
 .text.spi_lld_serve_rx_interrupt
                0x0000000008004500      0x12c /tmp/cceRjJvB.ltrans5.ltrans.o
 .text.spi_lld_serve_tx_interrupt
                0x000000000800462c       0x24 /tmp/cceRjJvB.ltrans5.ltrans.o
 .text.spi_lld_init
                0x0000000008004650       0x44 /tmp/cceRjJvB.ltrans5.ltrans.o
                0x0000000008004650                spi_lld_init
 .text.spi_lld_start
                0x0000000008004694      0x150 /tmp/cceRjJvB.ltrans5.ltrans.o
                0x0000000008004694                spi_lld_start
 .text.spi_lld_send
                0x00000000080047e4       0x88 /tmp/cceRjJvB.ltrans5.ltrans.o
                0x00000000080047e4                spi_lld_send
 .text.spi_lld_receive
                0x000000000800486c       0x88 /tmp/cceRjJvB.ltrans5.ltrans.o
                0x000000000800486c                spi_lld_receive
 .text.port_lock.lto_priv.174
                0x00000000080048f4       0x1a /tmp/cceRjJvB.ltrans5.ltrans.o
 .text.port_unlock.lto_priv.171
                0x000000000800490e       0x1a /tmp/cceRjJvB.ltrans5.ltrans.o
 .text.port_lock_from_isr.lto_priv.168
                0x0000000008004928        0xa /tmp/cceRjJvB.ltrans5.ltrans.o
 .text.port_unlock_from_isr.lto_priv.165
                0x0000000008004932        0xa /tmp/cceRjJvB.ltrans5.ltrans.o
 .text.chSysLockFromISR.lto_priv.162
                0x000000000800493c        0xa /tmp/cceRjJvB.ltrans5.ltrans.o
 .text.chSysUnlockFromISR.lto_priv.159
                0x0000000008004946        0xa /tmp/cceRjJvB.ltrans5.ltrans.o
 .text.osalSysLockFromISR.lto_priv.156
                0x0000000008004950        0xa /tmp/cceRjJvB.ltrans5.ltrans.o
 .text.osalSysUnlockFromISR.lto_priv.153
                0x000000000800495a        0xa /tmp/cceRjJvB.ltrans5.ltrans.o
 .text.osalOsTimerHandlerI
                0x0000000008004964        0xa /tmp/cceRjJvB.ltrans5.ltrans.o
 .text.VectorB0
                0x000000000800496e       0x2c /tmp/cceRjJvB.ltrans5.ltrans.o
                0x000000000800496e                VectorB0
 *fill*         0x000000000800499a        0x2 
 .text.st_lld_init
                0x000000000800499c       0x80 /tmp/cceRjJvB.ltrans5.ltrans.o
                0x000000000800499c                st_lld_init
 .text.port_lock.lto_priv.175
                0x0000000008004a1c       0x1a /tmp/cceRjJvB.ltrans5.ltrans.o
 .text.port_unlock.lto_priv.172
                0x0000000008004a36       0x1a /tmp/cceRjJvB.ltrans5.ltrans.o
 .text.port_lock_from_isr.lto_priv.169
                0x0000000008004a50        0xa /tmp/cceRjJvB.ltrans5.ltrans.o
 .text.port_unlock_from_isr.lto_priv.166
                0x0000000008004a5a        0xa /tmp/cceRjJvB.ltrans5.ltrans.o
 .text.chSysLockFromISR.lto_priv.163
                0x0000000008004a64        0xa /tmp/cceRjJvB.ltrans5.ltrans.o
 .text.chSysUnlockFromISR.lto_priv.160
                0x0000000008004a6e        0xa /tmp/cceRjJvB.ltrans5.ltrans.o
 .text.osalSysLockFromISR.lto_priv.157
                0x0000000008004a78        0xa /tmp/cceRjJvB.ltrans5.ltrans.o
 .text.osalSysUnlockFromISR.lto_priv.154
                0x0000000008004a82        0xa /tmp/cceRjJvB.ltrans5.ltrans.o
 .text.osalEventBroadcastFlagsI
                0x0000000008004a8c       0x18 /tmp/cceRjJvB.ltrans5.ltrans.o
 .text.set_error
                0x0000000008004aa4       0x6a /tmp/cceRjJvB.ltrans5.ltrans.o
 .text.serve_interrupt
                0x0000000008004b0e      0x140 /tmp/cceRjJvB.ltrans5.ltrans.o
 *fill*         0x0000000008004c4e        0x2 
 .text.notify1  0x0000000008004c50       0x24 /tmp/cceRjJvB.ltrans5.ltrans.o
 .text.notify2  0x0000000008004c74       0x24 /tmp/cceRjJvB.ltrans5.ltrans.o
 .text.VectorD4
                0x0000000008004c98       0x14 /tmp/cceRjJvB.ltrans5.ltrans.o
                0x0000000008004c98                VectorD4
 .text.VectorD8
                0x0000000008004cac       0x14 /tmp/cceRjJvB.ltrans5.ltrans.o
                0x0000000008004cac                VectorD8
 .text.sd_lld_init
                0x0000000008004cc0       0x40 /tmp/cceRjJvB.ltrans5.ltrans.o
                0x0000000008004cc0                sd_lld_init
 .text.osalSysHalt.lto_priv.150
                0x0000000008004d00       0x14 /tmp/cceRjJvB.ltrans5.ltrans.o
 .text.translate_errors
                0x0000000008004d14       0x76 /tmp/cceRjJvB.ltrans5.ltrans.o
 .text.uart_enter_rx_idle_loop.lto_priv.145
                0x0000000008004d8a       0x64 /tmp/cceRjJvB.ltrans5.ltrans.o
                0x0000000008004d8a                uart_enter_rx_idle_loop.lto_priv.145
 .text.usart_stop.lto_priv.146
                0x0000000008004dee       0x9a /tmp/cceRjJvB.ltrans5.ltrans.o
                0x0000000008004dee                usart_stop.lto_priv.146
 .text.usart_start.lto_priv.147
                0x0000000008004e88       0xb0 /tmp/cceRjJvB.ltrans5.ltrans.o
                0x0000000008004e88                usart_start.lto_priv.147
 .text.uart_lld_serve_rx_end_irq.lto_priv.143
                0x0000000008004f38       0xb0 /tmp/cceRjJvB.ltrans5.ltrans.o
                0x0000000008004f38                uart_lld_serve_rx_end_irq.lto_priv.143
 .text.uart_lld_serve_tx_end_irq.lto_priv.144
                0x0000000008004fe8       0x84 /tmp/cceRjJvB.ltrans5.ltrans.o
                0x0000000008004fe8                uart_lld_serve_tx_end_irq.lto_priv.144
 .text.serve_usart_irq.lto_priv.148
                0x000000000800506c       0x92 /tmp/cceRjJvB.ltrans5.ltrans.o
                0x000000000800506c                serve_usart_irq.lto_priv.148
 *fill*         0x00000000080050fe        0x2 
 .text.Vector120
                0x0000000008005100       0x40 /tmp/cceRjJvB.ltrans6.ltrans.o
                0x0000000008005100                Vector120
 .text.Vector124
                0x0000000008005140       0x44 /tmp/cceRjJvB.ltrans6.ltrans.o
                0x0000000008005140                Vector124
 .text.Vector128
                0x0000000008005184       0x44 /tmp/cceRjJvB.ltrans6.ltrans.o
                0x0000000008005184                Vector128
 .text.Vector12C
                0x00000000080051c8       0x44 /tmp/cceRjJvB.ltrans6.ltrans.o
                0x00000000080051c8                Vector12C
 .text.Vector130
                0x000000000800520c       0x40 /tmp/cceRjJvB.ltrans6.ltrans.o
                0x000000000800520c                Vector130
 .text.Vector150
                0x000000000800524c       0x44 /tmp/cceRjJvB.ltrans6.ltrans.o
                0x000000000800524c                Vector150
 .text.Vector154
                0x0000000008005290       0x44 /tmp/cceRjJvB.ltrans6.ltrans.o
                0x0000000008005290                Vector154
 .text.Vector158
                0x00000000080052d4       0x44 /tmp/cceRjJvB.ltrans6.ltrans.o
                0x00000000080052d4                Vector158
 .text.dmaInit  0x0000000008005318       0x7c /tmp/cceRjJvB.ltrans6.ltrans.o
                0x0000000008005318                dmaInit
 .text.dmaStreamAllocate
                0x0000000008005394      0x108 /tmp/cceRjJvB.ltrans6.ltrans.o
                0x0000000008005394                dmaStreamAllocate
 .text._pal_lld_init
                0x000000000800549c        0xc /tmp/cceRjJvB.ltrans6.ltrans.o
                0x000000000800549c                _pal_lld_init
 .text.port_lock
                0x00000000080054a8       0x1a /tmp/cceRjJvB.ltrans6.ltrans.o
 .text.port_unlock
                0x00000000080054c2       0x1a /tmp/cceRjJvB.ltrans6.ltrans.o
 .text.port_lock_from_isr
                0x00000000080054dc        0xa /tmp/cceRjJvB.ltrans6.ltrans.o
 .text.port_unlock_from_isr
                0x00000000080054e6        0xa /tmp/cceRjJvB.ltrans6.ltrans.o
 .text.chSysLockFromISR
                0x00000000080054f0        0xa /tmp/cceRjJvB.ltrans6.ltrans.o
 .text.chSysUnlockFromISR
                0x00000000080054fa        0xa /tmp/cceRjJvB.ltrans6.ltrans.o
 .text.osalSysLockFromISR
                0x0000000008005504        0xa /tmp/cceRjJvB.ltrans6.ltrans.o
 .text.osalSysUnlockFromISR
                0x000000000800550e        0xa /tmp/cceRjJvB.ltrans6.ltrans.o
 .text.osalSysPolledDelayX
                0x0000000008005518       0x14 /tmp/cceRjJvB.ltrans6.ltrans.o
 .text.otg_core_reset
                0x000000000800552c       0x3a /tmp/cceRjJvB.ltrans6.ltrans.o
 .text.otg_disable_ep
                0x0000000008005566       0x9a /tmp/cceRjJvB.ltrans6.ltrans.o
 .text.otg_rxfifo_flush
                0x0000000008005600       0x2c /tmp/cceRjJvB.ltrans6.ltrans.o
 .text.otg_txfifo_flush
                0x000000000800562c       0x34 /tmp/cceRjJvB.ltrans6.ltrans.o
 .text.otg_ram_reset
                0x0000000008005660       0x1c /tmp/cceRjJvB.ltrans6.ltrans.o
 .text.otg_ram_alloc
                0x000000000800567c       0x2a /tmp/cceRjJvB.ltrans6.ltrans.o
 .text.otg_fifo_write_from_buffer
                0x00000000080056a6       0x32 /tmp/cceRjJvB.ltrans6.ltrans.o
 .text.otg_fifo_read_to_buffer
                0x00000000080056d8       0x5a /tmp/cceRjJvB.ltrans6.ltrans.o
 .text.otg_rxfifo_handler
                0x0000000008005732       0xfe /tmp/cceRjJvB.ltrans6.ltrans.o
 .text.otg_txfifo_handler
                0x0000000008005830      0x12e /tmp/cceRjJvB.ltrans6.ltrans.o
 .text.otg_epin_handler
                0x000000000800595e      0x102 /tmp/cceRjJvB.ltrans6.ltrans.o
 .text.otg_epout_handler
                0x0000000008005a60      0x12e /tmp/cceRjJvB.ltrans6.ltrans.o
 .text.otg_isoc_in_failed_handler
                0x0000000008005b8e       0xd8 /tmp/cceRjJvB.ltrans6.ltrans.o
 .text.otg_isoc_out_failed_handler
                0x0000000008005c66       0x98 /tmp/cceRjJvB.ltrans6.ltrans.o
 .text.usb_lld_serve_interrupt
                0x0000000008005cfe      0x1ba /tmp/cceRjJvB.ltrans6.ltrans.o
 .text.Vector14C
                0x0000000008005eb8       0x14 /tmp/cceRjJvB.ltrans6.ltrans.o
                0x0000000008005eb8                Vector14C
 .text.usb_lld_init
                0x0000000008005ecc       0x24 /tmp/cceRjJvB.ltrans6.ltrans.o
                0x0000000008005ecc                usb_lld_init
 .text.usb_lld_start
                0x0000000008005ef0       0xe8 /tmp/cceRjJvB.ltrans6.ltrans.o
                0x0000000008005ef0                usb_lld_start
 .text.usb_lld_reset
                0x0000000008005fd8      0x130 /tmp/cceRjJvB.ltrans6.ltrans.o
                0x0000000008005fd8                usb_lld_reset
 .text.usb_lld_set_address
                0x0000000008006108       0x32 /tmp/cceRjJvB.ltrans6.ltrans.o
                0x0000000008006108                usb_lld_set_address
 *fill*         0x000000000800613a        0x2 
 .text.usb_lld_init_endpoint
                0x000000000800613c      0x220 /tmp/cceRjJvB.ltrans6.ltrans.o
                0x000000000800613c                usb_lld_init_endpoint
 .text.usb_lld_disable_endpoints
                0x000000000800635c       0x1a /tmp/cceRjJvB.ltrans6.ltrans.o
                0x000000000800635c                usb_lld_disable_endpoints
 .text.usb_lld_get_status_out
                0x0000000008006376       0x46 /tmp/cceRjJvB.ltrans6.ltrans.o
                0x0000000008006376                usb_lld_get_status_out
 .text.usb_lld_get_status_in
                0x00000000080063bc       0x46 /tmp/cceRjJvB.ltrans6.ltrans.o
                0x00000000080063bc                usb_lld_get_status_in
 .text.usb_lld_read_setup
                0x0000000008006402       0x2c /tmp/cceRjJvB.ltrans6.ltrans.o
                0x0000000008006402                usb_lld_read_setup
 .text.usb_lld_start_out
                0x000000000800642e      0x12e /tmp/cceRjJvB.ltrans6.ltrans.o
                0x000000000800642e                usb_lld_start_out
 .text.uartInit
                0x000000000800655c        0xa /tmp/cceRjJvB.ltrans7.ltrans.o
                0x000000000800655c                uartInit
 .text.uartObjectInit
                0x0000000008006566       0x2a /tmp/cceRjJvB.ltrans7.ltrans.o
                0x0000000008006566                uartObjectInit
 .text.uartStart
                0x0000000008006590       0x2a /tmp/cceRjJvB.ltrans7.ltrans.o
                0x0000000008006590                uartStart
 .text.uartStartSend
                0x00000000080065ba       0x2a /tmp/cceRjJvB.ltrans7.ltrans.o
                0x00000000080065ba                uartStartSend
 .text.port_lock
                0x00000000080065e4       0x1a /tmp/cceRjJvB.ltrans7.ltrans.o
 .text.port_unlock
                0x00000000080065fe       0x1a /tmp/cceRjJvB.ltrans7.ltrans.o
 .text.port_lock_from_isr
                0x0000000008006618        0xa /tmp/cceRjJvB.ltrans7.ltrans.o
 .text.port_unlock_from_isr
                0x0000000008006622        0xa /tmp/cceRjJvB.ltrans7.ltrans.o
 .text.chSysLock
                0x000000000800662c        0xa /tmp/cceRjJvB.ltrans7.ltrans.o
 .text.chSysUnlock
                0x0000000008006636        0xa /tmp/cceRjJvB.ltrans7.ltrans.o
 .text.chSysLockFromISR
                0x0000000008006640        0xa /tmp/cceRjJvB.ltrans7.ltrans.o
 .text.chSysUnlockFromISR
                0x000000000800664a        0xa /tmp/cceRjJvB.ltrans7.ltrans.o
 .text.osalSysLock.lto_priv.190
                0x0000000008006654        0xa /tmp/cceRjJvB.ltrans7.ltrans.o
 .text.osalSysUnlock.lto_priv.188
                0x000000000800665e        0xa /tmp/cceRjJvB.ltrans7.ltrans.o
 .text.osalSysLockFromISR
                0x0000000008006668        0xa /tmp/cceRjJvB.ltrans7.ltrans.o
 .text.osalSysUnlockFromISR
                0x0000000008006672        0xa /tmp/cceRjJvB.ltrans7.ltrans.o
 .text.get_hword
                0x000000000800667c       0x32 /tmp/cceRjJvB.ltrans7.ltrans.o
 .text.set_address
                0x00000000080066ae       0x3c /tmp/cceRjJvB.ltrans7.ltrans.o
 *fill*         0x00000000080066ea        0x2 
 .text.default_handler
                0x00000000080066ec      0x3d4 /tmp/cceRjJvB.ltrans7.ltrans.o
 .text.usbInit  0x0000000008006ac0        0xa /tmp/cceRjJvB.ltrans7.ltrans.o
                0x0000000008006ac0                usbInit
 .text.usbObjectInit
                0x0000000008006aca       0x56 /tmp/cceRjJvB.ltrans7.ltrans.o
                0x0000000008006aca                usbObjectInit
 .text.usbStart
                0x0000000008006b20       0x4a /tmp/cceRjJvB.ltrans7.ltrans.o
                0x0000000008006b20                usbStart
 .text.usbInitEndpointI
                0x0000000008006b6a       0x58 /tmp/cceRjJvB.ltrans7.ltrans.o
                0x0000000008006b6a                usbInitEndpointI
 .text.usbDisableEndpointsI
                0x0000000008006bc2       0x50 /tmp/cceRjJvB.ltrans7.ltrans.o
 .text.usbStartReceiveI
                0x0000000008006c12       0x58 /tmp/cceRjJvB.ltrans7.ltrans.o
                0x0000000008006c12                usbStartReceiveI
 .text.usbStartTransmitI
                0x0000000008006c6a       0x58 /tmp/cceRjJvB.ltrans7.ltrans.o
                0x0000000008006c6a                usbStartTransmitI
 .text._usb_reset
                0x0000000008006cc2       0x7c /tmp/cceRjJvB.ltrans7.ltrans.o
                0x0000000008006cc2                _usb_reset
 .text._usb_suspend
                0x0000000008006d3e       0x34 /tmp/cceRjJvB.ltrans7.ltrans.o
                0x0000000008006d3e                _usb_suspend
 .text._usb_wakeup
                0x0000000008006d72       0x2e /tmp/cceRjJvB.ltrans7.ltrans.o
                0x0000000008006d72                _usb_wakeup
 .text._usb_ep0setup
                0x0000000008006da0      0x15c /tmp/cceRjJvB.ltrans7.ltrans.o
                0x0000000008006da0                _usb_ep0setup
 .text._usb_ep0in
                0x0000000008006efc      0x134 /tmp/cceRjJvB.ltrans7.ltrans.o
                0x0000000008006efc                _usb_ep0in
 .text._usb_ep0out
                0x0000000008007030       0xec /tmp/cceRjJvB.ltrans7.ltrans.o
                0x0000000008007030                _usb_ep0out
 .text.nvicEnableVector
                0x000000000800711c       0x5c /tmp/cceRjJvB.ltrans7.ltrans.o
                0x000000000800711c                nvicEnableVector
 .text.irqInit  0x0000000008007178       0x3e /tmp/cceRjJvB.ltrans7.ltrans.o
 *fill*         0x00000000080071b6        0x2 
 .text.hal_lld_backup_domain_init
                0x00000000080071b8       0x48 /tmp/cceRjJvB.ltrans7.ltrans.o
 .text.hal_lld_init
                0x0000000008007200       0x78 /tmp/cceRjJvB.ltrans7.ltrans.o
                0x0000000008007200                hal_lld_init
 .text.stm32_clock_init
                0x0000000008007278      0x138 /tmp/cceRjJvB.ltrans7.ltrans.o
                0x0000000008007278                stm32_clock_init
 .text.Vector6C
                0x00000000080073b0       0x40 /tmp/cceRjJvB.ltrans7.ltrans.o
                0x00000000080073b0                Vector6C
 .text.Vector70
                0x00000000080073f0       0x44 /tmp/cceRjJvB.ltrans7.ltrans.o
                0x00000000080073f0                Vector70
 .text.Vector74
                0x0000000008007434       0x44 /tmp/cceRjJvB.ltrans7.ltrans.o
                0x0000000008007434                Vector74
 .text.Vector78
                0x0000000008007478       0x44 /tmp/cceRjJvB.ltrans7.ltrans.o
                0x0000000008007478                Vector78
 .text.Vector7C
                0x00000000080074bc       0x40 /tmp/cceRjJvB.ltrans7.ltrans.o
                0x00000000080074bc                Vector7C
 .text.Vector80
                0x00000000080074fc       0x44 /tmp/cceRjJvB.ltrans7.ltrans.o
                0x00000000080074fc                Vector80
 .text.Vector84
                0x0000000008007540       0x44 /tmp/cceRjJvB.ltrans7.ltrans.o
                0x0000000008007540                Vector84
 .text.VectorFC
                0x0000000008007584       0x44 /tmp/cceRjJvB.ltrans7.ltrans.o
                0x0000000008007584                VectorFC
 .text.iqGetTimeout
                0x00000000080075c8       0x7c /tmp/cceRjJvB.ltrans8.ltrans.o
 .text.iqReadTimeout
                0x0000000008007644       0x7e /tmp/cceRjJvB.ltrans8.ltrans.o
 .text.oqObjectInit
                0x00000000080076c2       0x4a /tmp/cceRjJvB.ltrans8.ltrans.o
 .text.oqPutTimeout
                0x000000000800770c       0x80 /tmp/cceRjJvB.ltrans8.ltrans.o
 .text.oqGetI   0x000000000800778c       0x78 /tmp/cceRjJvB.ltrans8.ltrans.o
                0x000000000800778c                oqGetI
 .text.oqWriteTimeout
                0x0000000008007804       0x7e /tmp/cceRjJvB.ltrans8.ltrans.o
 .text.chEvtObjectInit.lto_priv.225
                0x0000000008007882       0x18 /tmp/cceRjJvB.ltrans8.ltrans.o
 .text.osalEventObjectInit.lto_priv.221
                0x000000000800789a       0x14 /tmp/cceRjJvB.ltrans8.ltrans.o
 .text.osalEventBroadcastFlagsI.lto_priv.219
                0x00000000080078ae       0x18 /tmp/cceRjJvB.ltrans8.ltrans.o
 .text._write.lto_priv.17
                0x00000000080078c6       0x28 /tmp/cceRjJvB.ltrans8.ltrans.o
                0x00000000080078c6                _write.lto_priv.17
 .text._read.lto_priv.19
                0x00000000080078ee       0x28 /tmp/cceRjJvB.ltrans8.ltrans.o
                0x00000000080078ee                _read.lto_priv.19
 .text._put.lto_priv.11
                0x0000000008007916       0x26 /tmp/cceRjJvB.ltrans8.ltrans.o
                0x0000000008007916                _put.lto_priv.11
 .text._get.lto_priv.8
                0x000000000800793c       0x20 /tmp/cceRjJvB.ltrans8.ltrans.o
                0x000000000800793c                _get.lto_priv.8
 .text._putt.lto_priv.21
                0x000000000800795c       0x26 /tmp/cceRjJvB.ltrans8.ltrans.o
                0x000000000800795c                _putt.lto_priv.21
 .text._gett.lto_priv.23
                0x0000000008007982       0x20 /tmp/cceRjJvB.ltrans8.ltrans.o
                0x0000000008007982                _gett.lto_priv.23
 .text._writet.lto_priv.25
                0x00000000080079a2       0x28 /tmp/cceRjJvB.ltrans8.ltrans.o
                0x00000000080079a2                _writet.lto_priv.25
 .text._readt.lto_priv.27
                0x00000000080079ca       0x28 /tmp/cceRjJvB.ltrans8.ltrans.o
                0x00000000080079ca                _readt.lto_priv.27
 .text._ctl.lto_priv.29
                0x00000000080079f2       0x26 /tmp/cceRjJvB.ltrans8.ltrans.o
                0x00000000080079f2                _ctl.lto_priv.29
 .text.sdInit   0x0000000008007a18        0xa /tmp/cceRjJvB.ltrans8.ltrans.o
                0x0000000008007a18                sdInit
 *fill*         0x0000000008007a22        0x2 
 .text.sdObjectInit
                0x0000000008007a24       0x5c /tmp/cceRjJvB.ltrans8.ltrans.o
                0x0000000008007a24                sdObjectInit
 .text.sdIncomingDataI
                0x0000000008007a80       0x48 /tmp/cceRjJvB.ltrans8.ltrans.o
                0x0000000008007a80                sdIncomingDataI
 .text.port_lock.lto_priv.204
                0x0000000008007ac8       0x1a /tmp/cceRjJvB.ltrans8.ltrans.o
 .text.port_unlock.lto_priv.200
                0x0000000008007ae2       0x1a /tmp/cceRjJvB.ltrans8.ltrans.o
 .text.port_lock_from_isr
                0x0000000008007afc        0xa /tmp/cceRjJvB.ltrans8.ltrans.o
 .text.port_unlock_from_isr
                0x0000000008007b06        0xa /tmp/cceRjJvB.ltrans8.ltrans.o
 .text.chSysLock.lto_priv.196
                0x0000000008007b10        0xa /tmp/cceRjJvB.ltrans8.ltrans.o
 .text.chSysUnlock.lto_priv.192
                0x0000000008007b1a        0xa /tmp/cceRjJvB.ltrans8.ltrans.o
 .text.chSysLockFromISR
                0x0000000008007b24        0xa /tmp/cceRjJvB.ltrans8.ltrans.o
 .text.chSysUnlockFromISR
                0x0000000008007b2e        0xa /tmp/cceRjJvB.ltrans8.ltrans.o
 .text.chEvtObjectInit.lto_priv.226
                0x0000000008007b38       0x18 /tmp/cceRjJvB.ltrans8.ltrans.o
 .text.osalSysLock.lto_priv.216
                0x0000000008007b50        0xa /tmp/cceRjJvB.ltrans8.ltrans.o
 .text.osalSysUnlock.lto_priv.212
                0x0000000008007b5a        0xa /tmp/cceRjJvB.ltrans8.ltrans.o
 .text.osalSysLockFromISR
                0x0000000008007b64        0xa /tmp/cceRjJvB.ltrans8.ltrans.o
 .text.osalSysUnlockFromISR
                0x0000000008007b6e        0xa /tmp/cceRjJvB.ltrans8.ltrans.o
 .text.osalThreadDequeueAllI.lto_priv.224
                0x0000000008007b78       0x18 /tmp/cceRjJvB.ltrans8.ltrans.o
 .text.osalEventObjectInit.lto_priv.222
                0x0000000008007b90       0x14 /tmp/cceRjJvB.ltrans8.ltrans.o
 .text.osalEventBroadcastFlagsI.lto_priv.220
                0x0000000008007ba4       0x18 /tmp/cceRjJvB.ltrans8.ltrans.o
 .text.sdu_start_receive
                0x0000000008007bbc       0x82 /tmp/cceRjJvB.ltrans8.ltrans.o
 .text._write.lto_priv.18
                0x0000000008007c3e       0x28 /tmp/cceRjJvB.ltrans8.ltrans.o
                0x0000000008007c3e                _write.lto_priv.18
 .text._read.lto_priv.20
                0x0000000008007c66       0x28 /tmp/cceRjJvB.ltrans8.ltrans.o
                0x0000000008007c66                _read.lto_priv.20
 .text._put.lto_priv.12
                0x0000000008007c8e       0x26 /tmp/cceRjJvB.ltrans8.ltrans.o
                0x0000000008007c8e                _put.lto_priv.12
 .text._get.lto_priv.9
                0x0000000008007cb4       0x20 /tmp/cceRjJvB.ltrans8.ltrans.o
                0x0000000008007cb4                _get.lto_priv.9
 .text._putt.lto_priv.22
                0x0000000008007cd4       0x26 /tmp/cceRjJvB.ltrans8.ltrans.o
                0x0000000008007cd4                _putt.lto_priv.22
 .text._gett.lto_priv.24
                0x0000000008007cfa       0x20 /tmp/cceRjJvB.ltrans8.ltrans.o
                0x0000000008007cfa                _gett.lto_priv.24
 .text._writet.lto_priv.26
                0x0000000008007d1a       0x28 /tmp/cceRjJvB.ltrans8.ltrans.o
                0x0000000008007d1a                _writet.lto_priv.26
 .text._readt.lto_priv.28
                0x0000000008007d42       0x28 /tmp/cceRjJvB.ltrans8.ltrans.o
                0x0000000008007d42                _readt.lto_priv.28
 .text._ctl.lto_priv.30
                0x0000000008007d6a       0x26 /tmp/cceRjJvB.ltrans8.ltrans.o
                0x0000000008007d6a                _ctl.lto_priv.30
 .text.ibnotify
                0x0000000008007d90       0x1a /tmp/cceRjJvB.ltrans8.ltrans.o
 .text.obnotify
                0x0000000008007daa       0x80 /tmp/cceRjJvB.ltrans8.ltrans.o
 .text.sduInit  0x0000000008007e2a        0xc /tmp/cceRjJvB.ltrans8.ltrans.o
                0x0000000008007e2a                sduInit
 *fill*         0x0000000008007e36        0x2 
 .text.sduObjectInit
                0x0000000008007e38       0x74 /tmp/cceRjJvB.ltrans8.ltrans.o
                0x0000000008007e38                sduObjectInit
 .text.sduStart
                0x0000000008007eac       0x68 /tmp/cceRjJvB.ltrans8.ltrans.o
                0x0000000008007eac                sduStart
 .text.sduSuspendHookI
                0x0000000008007f14       0x44 /tmp/cceRjJvB.ltrans8.ltrans.o
                0x0000000008007f14                sduSuspendHookI
 .text.sduWakeupHookI
                0x0000000008007f58       0x28 /tmp/cceRjJvB.ltrans8.ltrans.o
                0x0000000008007f58                sduWakeupHookI
 .text.sduConfigureHookI
                0x0000000008007f80       0x42 /tmp/cceRjJvB.ltrans8.ltrans.o
                0x0000000008007f80                sduConfigureHookI
 *fill*         0x0000000008007fc2        0x2 
 .text.sduRequestsHook
                0x0000000008007fc4       0x84 /tmp/cceRjJvB.ltrans8.ltrans.o
                0x0000000008007fc4                sduRequestsHook
 .text.sduSOFHookI
                0x0000000008008048       0x80 /tmp/cceRjJvB.ltrans8.ltrans.o
                0x0000000008008048                sduSOFHookI
 .text.sduDataTransmitted
                0x00000000080080c8       0xce /tmp/cceRjJvB.ltrans8.ltrans.o
                0x00000000080080c8                sduDataTransmitted
 .text.sduDataReceived
                0x0000000008008196       0x70 /tmp/cceRjJvB.ltrans8.ltrans.o
                0x0000000008008196                sduDataReceived
 .text.sduInterruptTransmitted
                0x0000000008008206       0x16 /tmp/cceRjJvB.ltrans8.ltrans.o
                0x0000000008008206                sduInterruptTransmitted
 .text.port_lock.lto_priv.205
                0x000000000800821c       0x1a /tmp/cceRjJvB.ltrans8.ltrans.o
 .text.port_unlock.lto_priv.201
                0x0000000008008236       0x1a /tmp/cceRjJvB.ltrans8.ltrans.o
 .text.chSysLock.lto_priv.197
                0x0000000008008250        0xa /tmp/cceRjJvB.ltrans8.ltrans.o
 .text.chSysUnlock.lto_priv.193
                0x000000000800825a        0xa /tmp/cceRjJvB.ltrans8.ltrans.o
 .text.osalSysLock.lto_priv.217
                0x0000000008008264        0xa /tmp/cceRjJvB.ltrans8.ltrans.o
 .text.osalSysUnlock.lto_priv.213
                0x000000000800826e        0xa /tmp/cceRjJvB.ltrans8.ltrans.o
 .text.osalThreadSuspendS
                0x0000000008008278       0x1c /tmp/cceRjJvB.ltrans8.ltrans.o
 .text.osalMutexObjectInit
                0x0000000008008294       0x14 /tmp/cceRjJvB.ltrans8.ltrans.o
 .text.spiInit  0x00000000080082a8        0xa /tmp/cceRjJvB.ltrans8.ltrans.o
                0x00000000080082a8                spiInit
 .text.spiObjectInit
                0x00000000080082b2       0x2a /tmp/cceRjJvB.ltrans8.ltrans.o
                0x00000000080082b2                spiObjectInit
 .text.spiStart
                0x00000000080082dc       0x2a /tmp/cceRjJvB.ltrans8.ltrans.o
                0x00000000080082dc                spiStart
 .text.spiSelect
                0x0000000008008306       0x2c /tmp/cceRjJvB.ltrans8.ltrans.o
                0x0000000008008306                spiSelect
 .text.spiUnselect
                0x0000000008008332       0x2c /tmp/cceRjJvB.ltrans8.ltrans.o
                0x0000000008008332                spiUnselect
 .text.spiSend  0x000000000800835e       0x34 /tmp/cceRjJvB.ltrans8.ltrans.o
                0x000000000800835e                spiSend
 .text.spiReceive
                0x0000000008008392       0x34 /tmp/cceRjJvB.ltrans8.ltrans.o
                0x0000000008008392                spiReceive
 .text.port_lock.lto_priv.206
                0x00000000080083c6       0x1a /tmp/cceRjJvB.ltrans8.ltrans.o
 .text.port_unlock.lto_priv.202
                0x00000000080083e0       0x1a /tmp/cceRjJvB.ltrans8.ltrans.o
 .text.chSysLock.lto_priv.198
                0x00000000080083fa        0xa /tmp/cceRjJvB.ltrans8.ltrans.o
 .text.chSysUnlock.lto_priv.194
                0x0000000008008404        0xa /tmp/cceRjJvB.ltrans8.ltrans.o
 .text.osalSysLock.lto_priv.189
                0x000000000800840e        0xa /tmp/cceRjJvB.ltrans8.ltrans.o
                0x000000000800840e                osalSysLock.lto_priv.189
 .text.osalSysUnlock.lto_priv.187
                0x0000000008008418        0xa /tmp/cceRjJvB.ltrans8.ltrans.o
                0x0000000008008418                osalSysUnlock.lto_priv.187
 .text.__core_init
                0x0000000008008422        0xc /tmp/cceRjJvB.ltrans9.ltrans.o
                0x0000000008008422                __core_init
 .text.__late_init
                0x000000000800842e        0xc /tmp/cceRjJvB.ltrans9.ltrans.o
                0x000000000800842e                __late_init
 .text.__default_exit
                0x000000000800843a        0x6 /tmp/cceRjJvB.ltrans9.ltrans.o
                0x000000000800843a                __default_exit
 .text.__init_ram_areas
                0x0000000008008440       0x70 /tmp/cceRjJvB.ltrans9.ltrans.o
                0x0000000008008440                __init_ram_areas
 .text.osalInit
                0x00000000080084b0        0xc /tmp/cceRjJvB.ltrans9.ltrans.o
 .text.halInit  0x00000000080084bc       0x2e /tmp/cceRjJvB.ltrans9.ltrans.o
                0x00000000080084bc                halInit
 .text.st_lld_start_alarm
                0x00000000080084ea       0x2a /tmp/cceRjJvB.ltrans9.ltrans.o
 .text.st_lld_stop_alarm
                0x0000000008008514       0x14 /tmp/cceRjJvB.ltrans9.ltrans.o
 .text.st_lld_set_alarm
                0x0000000008008528       0x1a /tmp/cceRjJvB.ltrans9.ltrans.o
 .text.stInit   0x0000000008008542        0xa /tmp/cceRjJvB.ltrans9.ltrans.o
 .text.stStartAlarm
                0x000000000800854c       0x14 /tmp/cceRjJvB.ltrans9.ltrans.o
                0x000000000800854c                stStartAlarm
 .text.stStopAlarm
                0x0000000008008560        0xa /tmp/cceRjJvB.ltrans9.ltrans.o
                0x0000000008008560                stStopAlarm
 .text.stSetAlarm
                0x000000000800856a       0x14 /tmp/cceRjJvB.ltrans9.ltrans.o
                0x000000000800856a                stSetAlarm
 .text.chTimeAddX
                0x000000000800857e       0x1c /tmp/cceRjJvB.ltrans9.ltrans.o
 .text.chTimeDiffX
                0x000000000800859a       0x1c /tmp/cceRjJvB.ltrans9.ltrans.o
 .text.port_lock.lto_priv.242
                0x00000000080085b6       0x1a /tmp/cceRjJvB.ltrans9.ltrans.o
 .text.port_unlock.lto_priv.240
                0x00000000080085d0       0x1a /tmp/cceRjJvB.ltrans9.ltrans.o
 .text.st_lld_get_counter
                0x00000000080085ea       0x14 /tmp/cceRjJvB.ltrans9.ltrans.o
 .text.port_timer_get_time
                0x00000000080085fe        0xe /tmp/cceRjJvB.ltrans9.ltrans.o
 .text.queue_init.lto_priv.238
                0x000000000800860c       0x1e /tmp/cceRjJvB.ltrans9.ltrans.o
 .text.chSysLock.lto_priv.236
                0x000000000800862a        0xa /tmp/cceRjJvB.ltrans9.ltrans.o
 .text.chSysUnlock.lto_priv.234
                0x0000000008008634        0xa /tmp/cceRjJvB.ltrans9.ltrans.o
 .text.chVTGetSystemTimeX
                0x000000000800863e        0xe /tmp/cceRjJvB.ltrans9.ltrans.o
 .text.chThdQueueObjectInit.lto_priv.232
                0x000000000800864c       0x14 /tmp/cceRjJvB.ltrans9.ltrans.o
 .text.osalSysLock
                0x0000000008008660        0xa /tmp/cceRjJvB.ltrans9.ltrans.o
 .text.osalSysUnlock
                0x000000000800866a        0xa /tmp/cceRjJvB.ltrans9.ltrans.o
 .text.osalOsGetSystemTimeX
                0x0000000008008674        0xe /tmp/cceRjJvB.ltrans9.ltrans.o
 .text.osalTimeAddX
                0x0000000008008682       0x1c /tmp/cceRjJvB.ltrans9.ltrans.o
 .text.osalTimeDiffX
                0x000000000800869e       0x1c /tmp/cceRjJvB.ltrans9.ltrans.o
 .text.osalThreadQueueObjectInit
                0x00000000080086ba       0x14 /tmp/cceRjJvB.ltrans9.ltrans.o
 .text.osalThreadEnqueueTimeoutS
                0x00000000080086ce       0x1c /tmp/cceRjJvB.ltrans9.ltrans.o
 .text.osalThreadDequeueNextI
                0x00000000080086ea       0x18 /tmp/cceRjJvB.ltrans9.ltrans.o
 .text.osalThreadDequeueAllI
                0x0000000008008702       0x18 /tmp/cceRjJvB.ltrans9.ltrans.o
 .text.ibqObjectInit
                0x000000000800871a       0x74 /tmp/cceRjJvB.ltrans9.ltrans.o
                0x000000000800871a                ibqObjectInit
 .text.ibqResetI
                0x000000000800878e       0x3c /tmp/cceRjJvB.ltrans9.ltrans.o
                0x000000000800878e                ibqResetI
 .text.ibqGetEmptyBufferI
                0x00000000080087ca       0x42 /tmp/cceRjJvB.ltrans9.ltrans.o
                0x00000000080087ca                ibqGetEmptyBufferI
 .text.ibqPostFullBufferI
                0x000000000800880c       0x4e /tmp/cceRjJvB.ltrans9.ltrans.o
                0x000000000800880c                ibqPostFullBufferI
 .text.ibqGetFullBufferTimeoutS
                0x000000000800885a       0x5c /tmp/cceRjJvB.ltrans9.ltrans.o
 .text.ibqReleaseEmptyBufferS
                0x00000000080088b6       0x50 /tmp/cceRjJvB.ltrans9.ltrans.o
 .text.ibqGetTimeout
                0x0000000008008906       0x60 /tmp/cceRjJvB.ltrans9.ltrans.o
                0x0000000008008906                ibqGetTimeout
 .text.ibqReadTimeout
                0x0000000008008966      0x12a /tmp/cceRjJvB.ltrans9.ltrans.o
                0x0000000008008966                ibqReadTimeout
 .text.obqObjectInit
                0x0000000008008a90       0x74 /tmp/cceRjJvB.ltrans9.ltrans.o
                0x0000000008008a90                obqObjectInit
 .text.obqResetI
                0x0000000008008b04       0x3e /tmp/cceRjJvB.ltrans9.ltrans.o
                0x0000000008008b04                obqResetI
 .text.obqGetFullBufferI
                0x0000000008008b42       0x4e /tmp/cceRjJvB.ltrans9.ltrans.o
                0x0000000008008b42                obqGetFullBufferI
 .text.obqReleaseEmptyBufferI
                0x0000000008008b90       0x44 /tmp/cceRjJvB.ltrans9.ltrans.o
                0x0000000008008b90                obqReleaseEmptyBufferI
 .text.obqGetEmptyBufferTimeoutS
                0x0000000008008bd4       0x5a /tmp/cceRjJvB.ltrans9.ltrans.o
 .text.obqPostFullBufferS
                0x0000000008008c2e       0x5a /tmp/cceRjJvB.ltrans9.ltrans.o
 .text.obqPutTimeout
                0x0000000008008c88       0x6c /tmp/cceRjJvB.ltrans9.ltrans.o
                0x0000000008008c88                obqPutTimeout
 .text.obqWriteTimeout
                0x0000000008008cf4      0x132 /tmp/cceRjJvB.ltrans9.ltrans.o
                0x0000000008008cf4                obqWriteTimeout
 .text.obqTryFlushI
                0x0000000008008e26       0x96 /tmp/cceRjJvB.ltrans9.ltrans.o
                0x0000000008008e26                obqTryFlushI
 .text.port_lock.lto_priv.243
                0x0000000008008ebc       0x1a /tmp/cceRjJvB.ltrans9.ltrans.o
 .text.port_unlock.lto_priv.241
                0x0000000008008ed6       0x1a /tmp/cceRjJvB.ltrans9.ltrans.o
 .text.queue_init.lto_priv.239
                0x0000000008008ef0       0x1e /tmp/cceRjJvB.ltrans9.ltrans.o
 .text.chSysLock.lto_priv.237
                0x0000000008008f0e        0xa /tmp/cceRjJvB.ltrans9.ltrans.o
 .text.chSysUnlock.lto_priv.235
                0x0000000008008f18        0xa /tmp/cceRjJvB.ltrans9.ltrans.o
 .text.chThdQueueObjectInit.lto_priv.233
                0x0000000008008f22       0x14 /tmp/cceRjJvB.ltrans9.ltrans.o
 .text.osalSysLock.lto_priv.214
                0x0000000008008f36        0xa /tmp/cceRjJvB.ltrans9.ltrans.o
                0x0000000008008f36                osalSysLock.lto_priv.214
 .text.osalSysUnlock.lto_priv.210
                0x0000000008008f40        0xa /tmp/cceRjJvB.ltrans9.ltrans.o
                0x0000000008008f40                osalSysUnlock.lto_priv.210
 .text.osalThreadQueueObjectInit.lto_priv.230
                0x0000000008008f4a       0x14 /tmp/cceRjJvB.ltrans9.ltrans.o
                0x0000000008008f4a                osalThreadQueueObjectInit.lto_priv.230
 .text.osalThreadEnqueueTimeoutS.lto_priv.227
                0x0000000008008f5e       0x1c /tmp/cceRjJvB.ltrans9.ltrans.o
                0x0000000008008f5e                osalThreadEnqueueTimeoutS.lto_priv.227
 .text.osalThreadDequeueNextI.lto_priv.229
                0x0000000008008f7a       0x18 /tmp/cceRjJvB.ltrans9.ltrans.o
                0x0000000008008f7a                osalThreadDequeueNextI.lto_priv.229
 .text.iq_read.lto_priv.231
                0x0000000008008f92       0xbc /tmp/cceRjJvB.ltrans9.ltrans.o
                0x0000000008008f92                iq_read.lto_priv.231
 .text.oq_write.lto_priv.228
                0x000000000800904e       0xbc /tmp/cceRjJvB.ltrans9.ltrans.o
                0x000000000800904e                oq_write.lto_priv.228
 .text.iqObjectInit
                0x000000000800910a       0x4a /tmp/cceRjJvB.ltrans9.ltrans.o
                0x000000000800910a                iqObjectInit
 .text.iqPutI   0x0000000008009154       0x7c /tmp/cceRjJvB.ltrans9.ltrans.o
                0x0000000008009154                iqPutI
 .text.memcpy   0x00000000080091d0       0x16 /opt/Atollic_TrueSTUDIO_for_STM32_x86_64_9.1.0/ARMTools/bin/../lib/gcc/arm-atollic-eabi/6.3.1/../../../../arm-atollic-eabi/lib/armv7e-m/fpu/libc.a(lib_a-memcpy-stub.o)
                0x00000000080091d0                memcpy
 .text.memset   0x00000000080091e6       0x10 /opt/Atollic_TrueSTUDIO_for_STM32_x86_64_9.1.0/ARMTools/bin/../lib/gcc/arm-atollic-eabi/6.3.1/../../../../arm-atollic-eabi/lib/armv7e-m/fpu/libc.a(lib_a-memset.o)
                0x00000000080091e6                memset
 *(.glue_7t)
 .glue_7t       0x00000000080091f6        0x0 linker stubs
 *(.glue_7)
 .glue_7        0x00000000080091f6        0x0 linker stubs
 *(.gcc*)

.vfp11_veneer   0x00000000080091f8        0x0
 .vfp11_veneer  0x00000000080091f8        0x0 linker stubs

.v4_bx          0x00000000080091f8        0x0
 .v4_bx         0x00000000080091f8        0x0 linker stubs

.iplt           0x00000000080091f8        0x0
 .iplt          0x00000000080091f8        0x0 build/obj/crt0_v7m.o

.rodata         0x00000000080091f8      0x6fc
                0x00000000080091f8                . = ALIGN (0x4)
                0x00000000080091f8                __rodata_base__ = .
 *(.rodata)
 *(.rodata.*)
 .rodata.ram_areas.lto_priv.244
                0x00000000080091f8       0x80 /tmp/cceRjJvB.ltrans0.ltrans.o
                0x00000000080091f8                ram_areas.lto_priv.244
 .rodata.vmt.lto_priv.4
                0x0000000008009278       0x28 /tmp/cceRjJvB.ltrans0.ltrans.o
                0x0000000008009278                vmt.lto_priv.4
 .rodata.vmt.lto_priv.5
                0x00000000080092a0       0x28 /tmp/cceRjJvB.ltrans0.ltrans.o
                0x00000000080092a0                vmt.lto_priv.5
 .rodata.zero_status.lto_priv.184
                0x00000000080092c8        0x2 /tmp/cceRjJvB.ltrans0.ltrans.o
                0x00000000080092c8                zero_status.lto_priv.184
 *fill*         0x00000000080092ca        0x2 
 .rodata.active_status.lto_priv.186
                0x00000000080092cc        0x2 /tmp/cceRjJvB.ltrans0.ltrans.o
                0x00000000080092cc                active_status.lto_priv.186
 *fill*         0x00000000080092ce        0x2 
 .rodata.halted_status.lto_priv.185
                0x00000000080092d0        0x2 /tmp/cceRjJvB.ltrans0.ltrans.o
                0x00000000080092d0                halted_status.lto_priv.185
 *fill*         0x00000000080092d2        0x2 
 .rodata._stm32_dma_streams
                0x00000000080092d4       0xc0 /tmp/cceRjJvB.ltrans0.ltrans.o
                0x00000000080092d4                _stm32_dma_streams
 .rodata.ep0config.lto_priv.178
                0x0000000008009394       0x24 /tmp/cceRjJvB.ltrans0.ltrans.o
                0x0000000008009394                ep0config.lto_priv.178
 .rodata.fsparams.lto_priv.179
                0x00000000080093b8        0xc /tmp/cceRjJvB.ltrans0.ltrans.o
                0x00000000080093b8                fsparams.lto_priv.179
 .rodata.dummytx.lto_priv.176
                0x00000000080093c4        0x2 /tmp/cceRjJvB.ltrans0.ltrans.o
                0x00000000080093c4                dummytx.lto_priv.176
 *fill*         0x00000000080093c6        0x2 
 .rodata.gpio_default_config.lto_priv.142
                0x00000000080093c8       0xa8 /tmp/cceRjJvB.ltrans0.ltrans.o
                0x00000000080093c8                gpio_default_config.lto_priv.142
 .rodata.str1.4
                0x0000000008009470        0x5 /tmp/cceRjJvB.ltrans0.ltrans.o
 *fill*         0x0000000008009475        0x3 
 .rodata.idle_descriptor.7876.lto_priv.141
                0x0000000008009478       0x18 /tmp/cceRjJvB.ltrans0.ltrans.o
                0x0000000008009478                idle_descriptor.7876.lto_priv.141
 .rodata.ch_debug
                0x0000000008009490       0x16 /tmp/cceRjJvB.ltrans0.ltrans.o
                0x0000000008009490                ch_debug
 *fill*         0x00000000080094a6        0x2 
 .rodata.vmt_device
                0x00000000080094a8        0x8 /tmp/cceRjJvB.ltrans0.ltrans.o
 .rodata.vmt_gyroscope
                0x00000000080094b0       0x24 /tmp/cceRjJvB.ltrans0.ltrans.o
 .rodata.pow10  0x00000000080094d4       0x24 /tmp/cceRjJvB.ltrans0.ltrans.o
 .rodata.chvprintf.str1.4
                0x00000000080094f8        0x7 /tmp/cceRjJvB.ltrans0.ltrans.o
 *fill*         0x00000000080094ff        0x1 
 .rodata.vcom_device_descriptor_data
                0x0000000008009500       0x12 /tmp/cceRjJvB.ltrans0.ltrans.o
 *fill*         0x0000000008009512        0x2 
 .rodata.vcom_device_descriptor
                0x0000000008009514        0x8 /tmp/cceRjJvB.ltrans0.ltrans.o
 .rodata.vcom_configuration_descriptor_data
                0x000000000800951c       0x43 /tmp/cceRjJvB.ltrans0.ltrans.o
 *fill*         0x000000000800955f        0x1 
 .rodata.vcom_configuration_descriptor
                0x0000000008009560        0x8 /tmp/cceRjJvB.ltrans0.ltrans.o
 .rodata.vcom_string0
                0x0000000008009568        0x4 /tmp/cceRjJvB.ltrans0.ltrans.o
 .rodata.vcom_string1
                0x000000000800956c       0x26 /tmp/cceRjJvB.ltrans0.ltrans.o
 *fill*         0x0000000008009592        0x2 
 .rodata.vcom_string2
                0x0000000008009594       0x38 /tmp/cceRjJvB.ltrans0.ltrans.o
 .rodata.vcom_string3
                0x00000000080095cc        0x8 /tmp/cceRjJvB.ltrans0.ltrans.o
 .rodata.vcom_strings
                0x00000000080095d4       0x20 /tmp/cceRjJvB.ltrans0.ltrans.o
 .rodata.ep1config
                0x00000000080095f4       0x24 /tmp/cceRjJvB.ltrans0.ltrans.o
 .rodata.ep2config
                0x0000000008009618       0x24 /tmp/cceRjJvB.ltrans0.ltrans.o
 .rodata.usbcfg
                0x000000000800963c       0x10 /tmp/cceRjJvB.ltrans0.ltrans.o
 .rodata.serusbcfg
                0x000000000800964c        0x8 /tmp/cceRjJvB.ltrans0.ltrans.o
 .rodata.spicfg
                0x0000000008009654       0x14 /tmp/cceRjJvB.ltrans0.ltrans.o
 .rodata.Thread1.str1.4
                0x0000000008009668        0x8 /tmp/cceRjJvB.ltrans0.ltrans.o
 .rodata.main.str1.4
                0x0000000008009670       0x5b /tmp/cceRjJvB.ltrans0.ltrans.o
 *fill*         0x00000000080096cb        0x1 
 .rodata.handle_rx_packet.str1.4
                0x00000000080096cc       0x11 /tmp/cceRjJvB.ltrans0.ltrans.o
 *fill*         0x00000000080096dd        0x3 
 .rodata.aucCRCHi
                0x00000000080096e0      0x100 /tmp/cceRjJvB.ltrans0.ltrans.o
 .rodata.aucCRCLo
                0x00000000080097e0      0x100 /tmp/cceRjJvB.ltrans0.ltrans.o
 .rodata.chThdCreateStatic.str1.4
                0x00000000080098e0        0x7 /tmp/cceRjJvB.ltrans3.ltrans.o
 *fill*         0x00000000080098e7        0x1 
 .rodata.spi_lld_serve_rx_interrupt.str1.4
                0x00000000080098e8        0xc /tmp/cceRjJvB.ltrans5.ltrans.o
                0x00000000080098f4                . = ALIGN (0x4)
                0x00000000080098f4                __rodata_end__ = .

.ARM.extab
 *(.ARM.extab* .gnu.linkonce.armextab.*)

.ARM.exidx      0x00000000080098f4        0x8
                0x00000000080098f4                __exidx_start = .
 *(.ARM.exidx* .gnu.linkonce.armexidx.*)
 .ARM.exidx     0x00000000080098f4        0x8 /opt/Atollic_TrueSTUDIO_for_STM32_x86_64_9.1.0/ARMTools/bin/../lib/gcc/arm-atollic-eabi/6.3.1/armv7e-m/fpu/libgcc.a(_udivmoddi4.o)
                0x00000000080098fc                __exidx_end = .

.rel.dyn        0x00000000080098fc        0x0
 .rel.iplt      0x00000000080098fc        0x0 build/obj/crt0_v7m.o

.eh_frame_hdr
 *(.eh_frame_hdr)

.eh_frame
 *(.eh_frame)
                0x0000000020000000                __ram0_start__ = ORIGIN (ram0)
                0x0000000000010000                __ram0_size__ = LENGTH (ram0)
                0x0000000020010000                __ram0_end__ = (__ram0_start__ + __ram0_size__)
                0x0000000000000000                __ram1_start__ = ORIGIN (ram1)
                0x0000000000000000                __ram1_size__ = LENGTH (ram1)
                0x0000000000000000                __ram1_end__ = (__ram1_start__ + __ram1_size__)
                0x0000000000000000                __ram2_start__ = ORIGIN (ram2)
                0x0000000000000000                __ram2_size__ = LENGTH (ram2)
                0x0000000000000000                __ram2_end__ = (__ram2_start__ + __ram2_size__)
                0x0000000000000000                __ram3_start__ = ORIGIN (ram3)
                0x0000000000000000                __ram3_size__ = LENGTH (ram3)
                0x0000000000000000                __ram3_end__ = (__ram3_start__ + __ram3_size__)
                0x0000000000000000                __ram4_start__ = ORIGIN (ram4)
                0x0000000000000000                __ram4_size__ = LENGTH (ram4)
                0x0000000000000000                __ram4_end__ = (__ram4_start__ + __ram4_size__)
                0x0000000000000000                __ram5_start__ = ORIGIN (ram5)
                0x0000000000000000                __ram5_size__ = LENGTH (ram5)
                0x0000000000000000                __ram5_end__ = (__ram5_start__ + __ram5_size__)
                0x0000000000000000                __ram6_start__ = ORIGIN (ram6)
                0x0000000000000000                __ram6_size__ = LENGTH (ram6)
                0x0000000000000000                __ram6_end__ = (__ram6_start__ + __ram6_size__)
                0x0000000000000000                __ram7_start__ = ORIGIN (ram7)
                0x0000000000000000                __ram7_size__ = LENGTH (ram7)
                0x0000000000000000                __ram7_end__ = (__ram7_start__ + __ram7_size__)

.data           0x0000000020000800       0x44 load address 0x00000000080098fc
                0x0000000020000800                . = ALIGN (0x4)
                [!provide]                        PROVIDE (_textdata, LOADADDR (.data))
                [!provide]                        PROVIDE (_data, .)
                0x00000000080098fc                _textdata_start = LOADADDR (.data)
                0x0000000020000800                _data_start = .
 *(.data)
 *(.data.*)
 .data.linecoding.lto_priv.218
                0x0000000020000800        0x7 /tmp/cceRjJvB.ltrans0.ltrans.o
                0x0000000020000800                linecoding.lto_priv.218
 *fill*         0x0000000020000807        0x1 
 .data.uart_cfg_1
                0x0000000020000808       0x20 /tmp/cceRjJvB.ltrans0.ltrans.o
 .data.axisID   0x0000000020000828        0x3 /tmp/cceRjJvB.ltrans0.ltrans.o
 *fill*         0x000000002000082b        0x1 
 .data.l3gd20cfg
                0x000000002000082c       0x14 /tmp/cceRjJvB.ltrans0.ltrans.o
 .data.chp      0x0000000020000840        0x4 /tmp/cceRjJvB.ltrans0.ltrans.o
 *(.ramtext)
                0x0000000020000844                . = ALIGN (0x4)
                [!provide]                        PROVIDE (_edata, .)
                0x0000000020000844                _data_end = .

.igot.plt       0x0000000020000844        0x0 load address 0x0000000008009940
 .igot.plt      0x0000000020000844        0x0 build/obj/crt0_v7m.o

.bss            0x0000000020000848      0xba0 load address 0x0000000008009940
                0x0000000020000848                . = ALIGN (0x4)
                0x0000000020000848                _bss_start = .
 *(.bss)
 *(.bss.*)
 .bss.dma_streams_mask.lto_priv.180
                0x0000000020000848        0x4 /tmp/cceRjJvB.ltrans0.ltrans.o
                0x0000000020000848                dma_streams_mask.lto_priv.180
 .bss.dma_isr_redir.lto_priv.181
                0x000000002000084c       0x80 /tmp/cceRjJvB.ltrans0.ltrans.o
                0x000000002000084c                dma_isr_redir.lto_priv.181
 .bss.USBD1     0x00000000200008cc       0x60 /tmp/cceRjJvB.ltrans0.ltrans.o
                0x00000000200008cc                USBD1
 .bss.ep0_state.lto_priv.182
                0x000000002000092c       0x10 /tmp/cceRjJvB.ltrans0.ltrans.o
                0x000000002000092c                ep0_state.lto_priv.182
 .bss.ep0setup_buffer.lto_priv.183
                0x000000002000093c        0x8 /tmp/cceRjJvB.ltrans0.ltrans.o
                0x000000002000093c                ep0setup_buffer.lto_priv.183
 .bss.SPID1     0x0000000020000944       0x30 /tmp/cceRjJvB.ltrans0.ltrans.o
                0x0000000020000944                SPID1
 .bss.dummyrx.lto_priv.177
                0x0000000020000974        0x2 /tmp/cceRjJvB.ltrans0.ltrans.o
                0x0000000020000974                dummyrx.lto_priv.177
 *fill*         0x0000000020000976        0x2 
 .bss.SD1       0x0000000020000978       0x7c /tmp/cceRjJvB.ltrans0.ltrans.o
                0x0000000020000978                SD1
 .bss.SD2       0x00000000200009f4       0x7c /tmp/cceRjJvB.ltrans0.ltrans.o
                0x00000000200009f4                SD2
 .bss.UARTD6    0x0000000020000a70       0x1c /tmp/cceRjJvB.ltrans0.ltrans.o
                0x0000000020000a70                UARTD6
 *fill*         0x0000000020000a8c        0x4 
 .bss.ch_idle_thread_wa
                0x0000000020000a90      0x160 /tmp/cceRjJvB.ltrans0.ltrans.o
                0x0000000020000a90                ch_idle_thread_wa
 .bss.ch        0x0000000020000bf0       0x78 /tmp/cceRjJvB.ltrans0.ltrans.o
                0x0000000020000bf0                ch
 .bss.ch_memcore
                0x0000000020000c68        0x8 /tmp/cceRjJvB.ltrans0.ltrans.o
                0x0000000020000c68                ch_memcore
 .bss.default_heap.lto_priv.44
                0x0000000020000c70       0x1c /tmp/cceRjJvB.ltrans0.ltrans.o
                0x0000000020000c70                default_heap.lto_priv.44
 .bss.ch_factory
                0x0000000020000c8c       0x44 /tmp/cceRjJvB.ltrans0.ltrans.o
                0x0000000020000c8c                ch_factory
 .bss.SDU1      0x0000000020000cd0      0x490 /tmp/cceRjJvB.ltrans0.ltrans.o
 .bss.ep1instate
                0x0000000020001160       0x10 /tmp/cceRjJvB.ltrans0.ltrans.o
 .bss.ep1outstate
                0x0000000020001170       0x10 /tmp/cceRjJvB.ltrans0.ltrans.o
 .bss.ep2instate
                0x0000000020001180       0x10 /tmp/cceRjJvB.ltrans0.ltrans.o
 .bss.bsem      0x0000000020001190        0xc /tmp/cceRjJvB.ltrans0.ltrans.o
 .bss.mtx1      0x000000002000119c       0x10 /tmp/cceRjJvB.ltrans0.ltrans.o
 .bss.L3GD20D1  0x00000000200011ac       0x30 /tmp/cceRjJvB.ltrans0.ltrans.o
 .bss.gyroraw   0x00000000200011dc        0xc /tmp/cceRjJvB.ltrans0.ltrans.o
 .bss.gyrocooked
                0x00000000200011e8        0xc /tmp/cceRjJvB.ltrans0.ltrans.o
 .bss.i         0x00000000200011f4        0x4 /tmp/cceRjJvB.ltrans0.ltrans.o
 .bss.modbus_registers
                0x00000000200011f8       0x18 /tmp/cceRjJvB.ltrans0.ltrans.o
 .bss.waThread1
                0x0000000020001210      0x1d0 /tmp/cceRjJvB.ltrans0.ltrans.o
 .bss.start_time
                0x00000000200013e0        0x4 /tmp/cceRjJvB.ltrans0.ltrans.o
 .bss.timeout   0x00000000200013e4        0x4 /tmp/cceRjJvB.ltrans0.ltrans.o
 *(COMMON)
                0x00000000200013e8                . = ALIGN (0x4)
                0x00000000200013e8                _bss_end = .
                [!provide]                        PROVIDE (end, .)

.ram0_init      0x00000000200013e8        0x0 load address 0x0000000008009940
                0x00000000200013e8                . = ALIGN (0x4)
                0x0000000008009940                __ram0_init_text__ = LOADADDR (.ram0_init)
                0x00000000200013e8                __ram0_init__ = .
 *(.ram0_init)
 *(.ram0_init.*)
                0x00000000200013e8                . = ALIGN (0x4)

.ram0           0x00000000200013e8        0x0 load address 0x0000000008009940
                0x00000000200013e8                . = ALIGN (0x4)
                0x00000000200013e8                __ram0_clear__ = .
 *(.ram0_clear)
 *(.ram0_clear.*)
                0x00000000200013e8                . = ALIGN (0x4)
                0x00000000200013e8                __ram0_noinit__ = .
 *(.ram0)
 *(.ram0.*)
                0x00000000200013e8                . = ALIGN (0x4)
                0x00000000200013e8                __ram0_free__ = .

.ram1_init      0x0000000000000000        0x0 load address 0x0000000008009940
                0x0000000000000000                . = ALIGN (0x4)
                0x0000000008009940                __ram1_init_text__ = LOADADDR (.ram1_init)
                0x0000000000000000                __ram1_init__ = .
 *(.ram1_init)
 *(.ram1_init.*)
                0x0000000000000000                . = ALIGN (0x4)

.ram1           0x0000000000000000        0x0 load address 0x0000000008009940
                0x0000000000000000                . = ALIGN (0x4)
                0x0000000000000000                __ram1_clear__ = .
 *(.ram1_clear)
 *(.ram1_clear.*)
                0x0000000000000000                . = ALIGN (0x4)
                0x0000000000000000                __ram1_noinit__ = .
 *(.ram1)
 *(.ram1.*)
                0x0000000000000000                . = ALIGN (0x4)
                0x0000000000000000                __ram1_free__ = .

.ram2_init      0x0000000000000000        0x0 load address 0x0000000008009940
                0x0000000000000000                . = ALIGN (0x4)
                0x0000000008009940                __ram2_init_text__ = LOADADDR (.ram2_init)
                0x0000000000000000                __ram2_init__ = .
 *(.ram2_init)
 *(.ram2_init.*)
                0x0000000000000000                . = ALIGN (0x4)

.ram2           0x0000000000000000        0x0 load address 0x0000000008009940
                0x0000000000000000                . = ALIGN (0x4)
                0x0000000000000000                __ram2_clear__ = .
 *(.ram2_clear)
 *(.ram2_clear.*)
                0x0000000000000000                . = ALIGN (0x4)
                0x0000000000000000                __ram2_noinit__ = .
 *(.ram2)
 *(.ram2.*)
                0x0000000000000000                . = ALIGN (0x4)
                0x0000000000000000                __ram2_free__ = .

.ram3_init      0x0000000000000000        0x0 load address 0x0000000008009940
                0x0000000000000000                . = ALIGN (0x4)
                0x0000000008009940                __ram3_init_text__ = LOADADDR (.ram3_init)
                0x0000000000000000                __ram3_init__ = .
 *(.ram3_init)
 *(.ram3_init.*)
                0x0000000000000000                . = ALIGN (0x4)

.ram3           0x0000000000000000        0x0 load address 0x0000000008009940
                0x0000000000000000                . = ALIGN (0x4)
                0x0000000000000000                __ram3_clear__ = .
 *(.ram3_clear)
 *(.ram3_clear.*)
                0x0000000000000000                . = ALIGN (0x4)
                0x0000000000000000                __ram3_noinit__ = .
 *(.ram3)
 *(.ram3.*)
                0x0000000000000000                . = ALIGN (0x4)
                0x0000000000000000                __ram3_free__ = .

.ram4_init      0x0000000000000000        0x0 load address 0x0000000008009940
                0x0000000000000000                . = ALIGN (0x4)
                0x0000000008009940                __ram4_init_text__ = LOADADDR (.ram4_init)
                0x0000000000000000                __ram4_init__ = .
 *(.ram4_init)
 *(.ram4_init.*)
                0x0000000000000000                . = ALIGN (0x4)

.ram4           0x0000000000000000        0x0 load address 0x0000000008009940
                0x0000000000000000                . = ALIGN (0x4)
                0x0000000000000000                __ram4_clear__ = .
 *(.ram4_clear)
 *(.ram4_clear.*)
                0x0000000000000000                . = ALIGN (0x4)
                0x0000000000000000                __ram4_noinit__ = .
 *(.ram4)
 *(.ram4.*)
                0x0000000000000000                . = ALIGN (0x4)
                0x0000000000000000                __ram4_free__ = .

.ram5_init      0x0000000000000000        0x0 load address 0x0000000008009940
                0x0000000000000000                . = ALIGN (0x4)
                0x0000000008009940                __ram5_init_text__ = LOADADDR (.ram5_init)
                0x0000000000000000                __ram5_init__ = .
 *(.ram5_init)
 *(.ram5_init.*)
                0x0000000000000000                . = ALIGN (0x4)

.ram5           0x0000000000000000        0x0 load address 0x0000000008009940
                0x0000000000000000                . = ALIGN (0x4)
                0x0000000000000000                __ram5_clear__ = .
 *(.ram5_clear)
 *(.ram5_clear.*)
                0x0000000000000000                . = ALIGN (0x4)
                0x0000000000000000                __ram5_noinit__ = .
 *(.ram5)
 *(.ram5.*)
                0x0000000000000000                . = ALIGN (0x4)
                0x0000000000000000                __ram5_free__ = .

.ram6_init      0x0000000000000000        0x0 load address 0x0000000008009940
                0x0000000000000000                . = ALIGN (0x4)
                0x0000000008009940                __ram6_init_text__ = LOADADDR (.ram6_init)
                0x0000000000000000                __ram6_init__ = .
 *(.ram6_init)
 *(.ram6_init.*)
                0x0000000000000000                . = ALIGN (0x4)

.ram6           0x0000000000000000        0x0 load address 0x0000000008009940
                0x0000000000000000                . = ALIGN (0x4)
                0x0000000000000000                __ram6_clear__ = .
 *(.ram6_clear)
 *(.ram6_clear.*)
                0x0000000000000000                . = ALIGN (0x4)
                0x0000000000000000                __ram6_noinit__ = .
 *(.ram6)
 *(.ram6.*)
                0x0000000000000000                . = ALIGN (0x4)
                0x0000000000000000                __ram6_free__ = .

.ram7_init      0x0000000000000000        0x0 load address 0x0000000008009940
                0x0000000000000000                . = ALIGN (0x4)
                0x0000000008009940                __ram7_init_text__ = LOADADDR (.ram7_init)
                0x0000000000000000                __ram7_init__ = .
 *(.ram7_init)
 *(.ram7_init.*)
                0x0000000000000000                . = ALIGN (0x4)

.ram7           0x0000000000000000        0x0 load address 0x0000000008009940
                0x0000000000000000                . = ALIGN (0x4)
                0x0000000000000000                __ram7_clear__ = .
 *(.ram7_clear)
 *(.ram7_clear.*)
                0x0000000000000000                . = ALIGN (0x4)
                0x0000000000000000                __ram7_noinit__ = .
 *(.ram7)
 *(.ram7.*)
                0x0000000000000000                . = ALIGN (0x4)
                0x0000000000000000                __ram7_free__ = .

.heap           0x00000000200013e8     0xec18
                0x00000000200013e8                . = ALIGN (0x8)
                0x00000000200013e8                __heap_base__ = .
                0x0000000020010000                . = (ORIGIN (HEAP_RAM) + LENGTH (HEAP_RAM))
 *fill*         0x00000000200013e8     0xec18 
                0x0000000020010000                __heap_end__ = .
                0x0000000000000400                __process_stack_size__ = 0x400
                0x0000000000000400                __main_stack_size__ = 0x400
START GROUP
LOAD /opt/Atollic_TrueSTUDIO_for_STM32_x86_64_9.1.0/ARMTools/bin/../lib/gcc/arm-atollic-eabi/6.3.1/armv7e-m/fpu/libgcc.a
LOAD /opt/Atollic_TrueSTUDIO_for_STM32_x86_64_9.1.0/ARMTools/bin/../lib/gcc/arm-atollic-eabi/6.3.1/../../../../arm-atollic-eabi/lib/armv7e-m/fpu/libc.a
END GROUP
OUTPUT(build/ch.elf elf32-littlearm)

.ARM.attributes
                0x0000000000000000       0x35
 .ARM.attributes
                0x0000000000000000       0x25 build/obj/crt0_v7m.o
 .ARM.attributes
                0x0000000000000025       0x25 build/obj/vectors.o
 .ARM.attributes
                0x000000000000004a       0x25 build/obj/chcoreasm_v7m.o
 .ARM.attributes
                0x000000000000006f       0x37 /tmp/cceRjJvB.ltrans0.ltrans.o
 .ARM.attributes
                0x00000000000000a6       0x37 /tmp/cceRjJvB.ltrans1.ltrans.o
 .ARM.attributes
                0x00000000000000dd       0x37 /tmp/cceRjJvB.ltrans2.ltrans.o
 .ARM.attributes
                0x0000000000000114       0x37 /tmp/cceRjJvB.ltrans3.ltrans.o
 .ARM.attributes
                0x000000000000014b       0x37 /tmp/cceRjJvB.ltrans4.ltrans.o
 .ARM.attributes
                0x0000000000000182       0x37 /tmp/cceRjJvB.ltrans5.ltrans.o
 .ARM.attributes
                0x00000000000001b9       0x37 /tmp/cceRjJvB.ltrans6.ltrans.o
 .ARM.attributes
                0x00000000000001f0       0x37 /tmp/cceRjJvB.ltrans7.ltrans.o
 .ARM.attributes
                0x0000000000000227       0x37 /tmp/cceRjJvB.ltrans8.ltrans.o
 .ARM.attributes
                0x000000000000025e       0x37 /tmp/cceRjJvB.ltrans9.ltrans.o
 .ARM.attributes
                0x0000000000000295       0x22 /opt/Atollic_TrueSTUDIO_for_STM32_x86_64_9.1.0/ARMTools/bin/../lib/gcc/arm-atollic-eabi/6.3.1/armv7e-m/fpu/libgcc.a(_arm_addsubdf3.o)
 .ARM.attributes
                0x00000000000002b7       0x22 /opt/Atollic_TrueSTUDIO_for_STM32_x86_64_9.1.0/ARMTools/bin/../lib/gcc/arm-atollic-eabi/6.3.1/armv7e-m/fpu/libgcc.a(_arm_muldivdf3.o)
 .ARM.attributes
                0x00000000000002d9       0x22 /opt/Atollic_TrueSTUDIO_for_STM32_x86_64_9.1.0/ARMTools/bin/../lib/gcc/arm-atollic-eabi/6.3.1/armv7e-m/fpu/libgcc.a(_arm_fixdfsi.o)
 .ARM.attributes
                0x00000000000002fb       0x22 /opt/Atollic_TrueSTUDIO_for_STM32_x86_64_9.1.0/ARMTools/bin/../lib/gcc/arm-atollic-eabi/6.3.1/armv7e-m/fpu/libgcc.a(_arm_truncdfsf2.o)
 .ARM.attributes
                0x000000000000031d       0x22 /opt/Atollic_TrueSTUDIO_for_STM32_x86_64_9.1.0/ARMTools/bin/../lib/gcc/arm-atollic-eabi/6.3.1/armv7e-m/fpu/libgcc.a(_aeabi_uldivmod.o)
 .ARM.attributes
                0x000000000000033f       0x34 /opt/Atollic_TrueSTUDIO_for_STM32_x86_64_9.1.0/ARMTools/bin/../lib/gcc/arm-atollic-eabi/6.3.1/armv7e-m/fpu/libgcc.a(_udivmoddi4.o)
 .ARM.attributes
                0x0000000000000373       0x22 /opt/Atollic_TrueSTUDIO_for_STM32_x86_64_9.1.0/ARMTools/bin/../lib/gcc/arm-atollic-eabi/6.3.1/armv7e-m/fpu/libgcc.a(_dvmd_tls.o)
 .ARM.attributes
                0x0000000000000395       0x34 /opt/Atollic_TrueSTUDIO_for_STM32_x86_64_9.1.0/ARMTools/bin/../lib/gcc/arm-atollic-eabi/6.3.1/../../../../arm-atollic-eabi/lib/armv7e-m/fpu/libc.a(lib_a-memcpy-stub.o)
 .ARM.attributes
                0x00000000000003c9       0x34 /opt/Atollic_TrueSTUDIO_for_STM32_x86_64_9.1.0/ARMTools/bin/../lib/gcc/arm-atollic-eabi/6.3.1/../../../../arm-atollic-eabi/lib/armv7e-m/fpu/libc.a(lib_a-memset.o)

.comment        0x0000000000000000       0x7c
 .comment       0x0000000000000000       0x7c /tmp/cceRjJvB.ltrans0.ltrans.o
                                         0x7d (size before relaxing)
 .comment       0x000000000000007c       0x7d /tmp/cceRjJvB.ltrans1.ltrans.o
 .comment       0x000000000000007c       0x7d /tmp/cceRjJvB.ltrans2.ltrans.o
 .comment       0x000000000000007c       0x7d /tmp/cceRjJvB.ltrans3.ltrans.o
 .comment       0x000000000000007c       0x7d /tmp/cceRjJvB.ltrans4.ltrans.o
 .comment       0x000000000000007c       0x7d /tmp/cceRjJvB.ltrans5.ltrans.o
 .comment       0x000000000000007c       0x7d /tmp/cceRjJvB.ltrans6.ltrans.o
 .comment       0x000000000000007c       0x7d /tmp/cceRjJvB.ltrans7.ltrans.o
 .comment       0x000000000000007c       0x7d /tmp/cceRjJvB.ltrans8.ltrans.o
 .comment       0x000000000000007c       0x7d /tmp/cceRjJvB.ltrans9.ltrans.o

.debug_line     0x0000000000000000     0x7d0d
 .debug_line    0x0000000000000000       0xa6 build/obj/crt0_v7m.o
 .debug_line    0x00000000000000a6       0x72 build/obj/vectors.o
 .debug_line    0x0000000000000118       0x86 build/obj/chcoreasm_v7m.o
 .debug_line    0x000000000000019e     0x1005 /tmp/cceRjJvB.ltrans0.ltrans.o
 .debug_line    0x00000000000011a3      0xcca /tmp/cceRjJvB.ltrans1.ltrans.o
 .debug_line    0x0000000000001e6d      0xc4f /tmp/cceRjJvB.ltrans2.ltrans.o
 .debug_line    0x0000000000002abc      0x993 /tmp/cceRjJvB.ltrans3.ltrans.o
 .debug_line    0x000000000000344f      0xe79 /tmp/cceRjJvB.ltrans4.ltrans.o
 .debug_line    0x00000000000042c8      0xbd2 /tmp/cceRjJvB.ltrans5.ltrans.o
 .debug_line    0x0000000000004e9a      0x91d /tmp/cceRjJvB.ltrans6.ltrans.o
 .debug_line    0x00000000000057b7      0xa6c /tmp/cceRjJvB.ltrans7.ltrans.o
 .debug_line    0x0000000000006223     0x1012 /tmp/cceRjJvB.ltrans8.ltrans.o
 .debug_line    0x0000000000007235      0xad8 /tmp/cceRjJvB.ltrans9.ltrans.o

.debug_info     0x0000000000000000    0x15ba3
 .debug_info    0x0000000000000000       0x79 build/obj/crt0_v7m.o
 .debug_info    0x0000000000000079       0xab build/obj/vectors.o
 .debug_info    0x0000000000000124       0xaf build/obj/chcoreasm_v7m.o
 .debug_info    0x00000000000001d3     0x40b6 /tmp/cceRjJvB.ltrans0.ltrans.o
 .debug_info    0x0000000000004289     0x2503 /tmp/cceRjJvB.ltrans1.ltrans.o
 .debug_info    0x000000000000678c     0x1d44 /tmp/cceRjJvB.ltrans2.ltrans.o
 .debug_info    0x00000000000084d0     0x15f2 /tmp/cceRjJvB.ltrans3.ltrans.o
 .debug_info    0x0000000000009ac2     0x1f33 /tmp/cceRjJvB.ltrans4.ltrans.o
 .debug_info    0x000000000000b9f5     0x2444 /tmp/cceRjJvB.ltrans5.ltrans.o
 .debug_info    0x000000000000de39     0x1811 /tmp/cceRjJvB.ltrans6.ltrans.o
 .debug_info    0x000000000000f64a     0x1a5f /tmp/cceRjJvB.ltrans7.ltrans.o
 .debug_info    0x00000000000110a9     0x33b1 /tmp/cceRjJvB.ltrans8.ltrans.o
 .debug_info    0x000000000001445a     0x1749 /tmp/cceRjJvB.ltrans9.ltrans.o

.debug_abbrev   0x0000000000000000     0x28b7
 .debug_abbrev  0x0000000000000000       0x14 build/obj/crt0_v7m.o
 .debug_abbrev  0x0000000000000014       0x14 build/obj/vectors.o
 .debug_abbrev  0x0000000000000028       0x14 build/obj/chcoreasm_v7m.o
 .debug_abbrev  0x000000000000003c      0x4c4 /tmp/cceRjJvB.ltrans0.ltrans.o
 .debug_abbrev  0x0000000000000500      0x464 /tmp/cceRjJvB.ltrans1.ltrans.o
 .debug_abbrev  0x0000000000000964      0x317 /tmp/cceRjJvB.ltrans2.ltrans.o
 .debug_abbrev  0x0000000000000c7b      0x37c /tmp/cceRjJvB.ltrans3.ltrans.o
 .debug_abbrev  0x0000000000000ff7      0x55c /tmp/cceRjJvB.ltrans4.ltrans.o
 .debug_abbrev  0x0000000000001553      0x3bd /tmp/cceRjJvB.ltrans5.ltrans.o
 .debug_abbrev  0x0000000000001910      0x371 /tmp/cceRjJvB.ltrans6.ltrans.o
 .debug_abbrev  0x0000000000001c81      0x3ab /tmp/cceRjJvB.ltrans7.ltrans.o
 .debug_abbrev  0x000000000000202c      0x415 /tmp/cceRjJvB.ltrans8.ltrans.o
 .debug_abbrev  0x0000000000002441      0x476 /tmp/cceRjJvB.ltrans9.ltrans.o

.debug_aranges  0x0000000000000000     0x1988
 .debug_aranges
                0x0000000000000000       0x20 build/obj/crt0_v7m.o
 .debug_aranges
                0x0000000000000020       0x20 build/obj/vectors.o
 .debug_aranges
                0x0000000000000040       0x20 build/obj/chcoreasm_v7m.o
 .debug_aranges
                0x0000000000000060      0x220 /tmp/cceRjJvB.ltrans0.ltrans.o
 .debug_aranges
                0x0000000000000280      0x260 /tmp/cceRjJvB.ltrans1.ltrans.o
 .debug_aranges
                0x00000000000004e0      0x2d0 /tmp/cceRjJvB.ltrans2.ltrans.o
 .debug_aranges
                0x00000000000007b0      0x260 /tmp/cceRjJvB.ltrans3.ltrans.o
 .debug_aranges
                0x0000000000000a10      0x368 /tmp/cceRjJvB.ltrans4.ltrans.o
 .debug_aranges
                0x0000000000000d78      0x220 /tmp/cceRjJvB.ltrans5.ltrans.o
 .debug_aranges
                0x0000000000000f98      0x1a0 /tmp/cceRjJvB.ltrans6.ltrans.o
 .debug_aranges
                0x0000000000001138      0x210 /tmp/cceRjJvB.ltrans7.ltrans.o
 .debug_aranges
                0x0000000000001348      0x3d0 /tmp/cceRjJvB.ltrans8.ltrans.o
 .debug_aranges
                0x0000000000001718      0x270 /tmp/cceRjJvB.ltrans9.ltrans.o

.debug_ranges   0x0000000000000000     0x1888
 .debug_ranges  0x0000000000000000      0x210 /tmp/cceRjJvB.ltrans0.ltrans.o
 .debug_ranges  0x0000000000000210      0x250 /tmp/cceRjJvB.ltrans1.ltrans.o
 .debug_ranges  0x0000000000000460      0x2c0 /tmp/cceRjJvB.ltrans2.ltrans.o
 .debug_ranges  0x0000000000000720      0x250 /tmp/cceRjJvB.ltrans3.ltrans.o
 .debug_ranges  0x0000000000000970      0x358 /tmp/cceRjJvB.ltrans4.ltrans.o
 .debug_ranges  0x0000000000000cc8      0x210 /tmp/cceRjJvB.ltrans5.ltrans.o
 .debug_ranges  0x0000000000000ed8      0x190 /tmp/cceRjJvB.ltrans6.ltrans.o
 .debug_ranges  0x0000000000001068      0x200 /tmp/cceRjJvB.ltrans7.ltrans.o
 .debug_ranges  0x0000000000001268      0x3c0 /tmp/cceRjJvB.ltrans8.ltrans.o
 .debug_ranges  0x0000000000001628      0x260 /tmp/cceRjJvB.ltrans9.ltrans.o

.debug_str      0x0000000000000000     0x4b0b
 .debug_str     0x0000000000000000     0x1ed4 /tmp/cceRjJvB.ltrans0.ltrans.o
                                       0x212b (size before relaxing)
 .debug_str     0x0000000000001ed4      0x6e9 /tmp/cceRjJvB.ltrans1.ltrans.o
                                       0x109c (size before relaxing)
 .debug_str     0x00000000000025bd      0x487 /tmp/cceRjJvB.ltrans2.ltrans.o
                                        0xa58 (size before relaxing)
 .debug_str     0x0000000000002a44      0x472 /tmp/cceRjJvB.ltrans3.ltrans.o
                                        0x999 (size before relaxing)
 .debug_str     0x0000000000002eb6      0xa12 /tmp/cceRjJvB.ltrans4.ltrans.o
                                       0x12f6 (size before relaxing)
 .debug_str     0x00000000000038c8      0x32b /tmp/cceRjJvB.ltrans5.ltrans.o
                                       0x12a6 (size before relaxing)
 .debug_str     0x0000000000003bf3      0x336 /tmp/cceRjJvB.ltrans6.ltrans.o
                                        0xd7d (size before relaxing)
 .debug_str     0x0000000000003f29      0x2c0 /tmp/cceRjJvB.ltrans7.ltrans.o
                                        0xe0c (size before relaxing)
 .debug_str     0x00000000000041e9      0x4ff /tmp/cceRjJvB.ltrans8.ltrans.o
                                       0x150b (size before relaxing)
 .debug_str     0x00000000000046e8      0x423 /tmp/cceRjJvB.ltrans9.ltrans.o
                                        0xac0 (size before relaxing)

.debug_frame    0x0000000000000000     0x6d74
 .debug_frame   0x0000000000000000      0x958 /tmp/cceRjJvB.ltrans0.ltrans.o
 .debug_frame   0x0000000000000958      0xa44 /tmp/cceRjJvB.ltrans1.ltrans.o
 .debug_frame   0x000000000000139c      0xc54 /tmp/cceRjJvB.ltrans2.ltrans.o
 .debug_frame   0x0000000000001ff0      0xa68 /tmp/cceRjJvB.ltrans3.ltrans.o
 .debug_frame   0x0000000000002a58      0xe74 /tmp/cceRjJvB.ltrans4.ltrans.o
 .debug_frame   0x00000000000038cc      0x8d0 /tmp/cceRjJvB.ltrans5.ltrans.o
 .debug_frame   0x000000000000419c      0x6f4 /tmp/cceRjJvB.ltrans6.ltrans.o
 .debug_frame   0x0000000000004890      0x890 /tmp/cceRjJvB.ltrans7.ltrans.o
 .debug_frame   0x0000000000005120     0x1030 /tmp/cceRjJvB.ltrans8.ltrans.o
 .debug_frame   0x0000000000006150      0xa38 /tmp/cceRjJvB.ltrans9.ltrans.o
 .debug_frame   0x0000000000006b88       0xac /opt/Atollic_TrueSTUDIO_for_STM32_x86_64_9.1.0/ARMTools/bin/../lib/gcc/arm-atollic-eabi/6.3.1/armv7e-m/fpu/libgcc.a(_arm_addsubdf3.o)
 .debug_frame   0x0000000000006c34       0x50 /opt/Atollic_TrueSTUDIO_for_STM32_x86_64_9.1.0/ARMTools/bin/../lib/gcc/arm-atollic-eabi/6.3.1/armv7e-m/fpu/libgcc.a(_arm_muldivdf3.o)
 .debug_frame   0x0000000000006c84       0x24 /opt/Atollic_TrueSTUDIO_for_STM32_x86_64_9.1.0/ARMTools/bin/../lib/gcc/arm-atollic-eabi/6.3.1/armv7e-m/fpu/libgcc.a(_arm_fixdfsi.o)
 .debug_frame   0x0000000000006ca8       0x24 /opt/Atollic_TrueSTUDIO_for_STM32_x86_64_9.1.0/ARMTools/bin/../lib/gcc/arm-atollic-eabi/6.3.1/armv7e-m/fpu/libgcc.a(_arm_truncdfsf2.o)
 .debug_frame   0x0000000000006ccc       0x2c /opt/Atollic_TrueSTUDIO_for_STM32_x86_64_9.1.0/ARMTools/bin/../lib/gcc/arm-atollic-eabi/6.3.1/armv7e-m/fpu/libgcc.a(_aeabi_uldivmod.o)
 .debug_frame   0x0000000000006cf8       0x34 /opt/Atollic_TrueSTUDIO_for_STM32_x86_64_9.1.0/ARMTools/bin/../lib/gcc/arm-atollic-eabi/6.3.1/armv7e-m/fpu/libgcc.a(_udivmoddi4.o)
 .debug_frame   0x0000000000006d2c       0x28 /opt/Atollic_TrueSTUDIO_for_STM32_x86_64_9.1.0/ARMTools/bin/../lib/gcc/arm-atollic-eabi/6.3.1/../../../../arm-atollic-eabi/lib/armv7e-m/fpu/libc.a(lib_a-memcpy-stub.o)
 .debug_frame   0x0000000000006d54       0x20 /opt/Atollic_TrueSTUDIO_for_STM32_x86_64_9.1.0/ARMTools/bin/../lib/gcc/arm-atollic-eabi/6.3.1/../../../../arm-atollic-eabi/lib/armv7e-m/fpu/libc.a(lib_a-memset.o)

Cross Reference Table

Symbol                                            File
BusFault_Handler                                  build/obj/vectors.o
DebugMon_Handler                                  build/obj/vectors.o
HardFault_Handler                                 build/obj/vectors.o
MemManage_Handler                                 build/obj/vectors.o
NMI_Handler                                       build/obj/vectors.o
PendSV_Handler                                    build/obj/vectors.o
Reset_Handler                                     build/obj/vectors.o
SD1                                               /tmp/cceRjJvB.ltrans0.ltrans.o
                                                  build/obj/hal_serial_lld.o (symbol from plugin)
                                                  /tmp/cceRjJvB.ltrans5.ltrans.o
SD2                                               /tmp/cceRjJvB.ltrans0.ltrans.o
                                                  build/obj/hal_serial_lld.o (symbol from plugin)
                                                  /tmp/cceRjJvB.ltrans5.ltrans.o
SDU1                                              build/obj/usbcfg.o (symbol from plugin)
                                                  build/obj/main.o (symbol from plugin)
SPID1                                             /tmp/cceRjJvB.ltrans0.ltrans.o
                                                  build/obj/hal_spi_lld.o (symbol from plugin)
                                                  /tmp/cceRjJvB.ltrans5.ltrans.o
                                                  build/obj/main.o (symbol from plugin)
SVC_Handler                                       /tmp/cceRjJvB.ltrans1.ltrans.o
                                                  build/obj/chcore_v7m.o (symbol from plugin)
                                                  build/obj/vectors.o
SysTick_Handler                                   build/obj/vectors.o
SystemCoreClock                                   build/obj/hal_lld.o (symbol from plugin)
UARTD6                                            /tmp/cceRjJvB.ltrans0.ltrans.o
                                                  build/obj/hal_uart_lld.o (symbol from plugin)
                                                  /tmp/cceRjJvB.ltrans4.ltrans.o
                                                  build/obj/main.o (symbol from plugin)
USBD1                                             /tmp/cceRjJvB.ltrans0.ltrans.o
                                                  build/obj/hal_usb_lld.o (symbol from plugin)
                                                  /tmp/cceRjJvB.ltrans6.ltrans.o
                                                  build/obj/usbcfg.o (symbol from plugin)
UsageFault_Handler                                build/obj/vectors.o
Vector100                                         build/obj/vectors.o
Vector104                                         build/obj/vectors.o
Vector108                                         build/obj/vectors.o
Vector10C                                         build/obj/vectors.o
Vector110                                         build/obj/vectors.o
Vector114                                         build/obj/vectors.o
Vector118                                         build/obj/vectors.o
Vector11C                                         build/obj/vectors.o
Vector120                                         /tmp/cceRjJvB.ltrans6.ltrans.o
                                                  build/obj/stm32_dma.o (symbol from plugin)
                                                  build/obj/vectors.o
Vector124                                         /tmp/cceRjJvB.ltrans6.ltrans.o
                                                  build/obj/stm32_dma.o (symbol from plugin)
                                                  build/obj/vectors.o
Vector128                                         /tmp/cceRjJvB.ltrans6.ltrans.o
                                                  build/obj/stm32_dma.o (symbol from plugin)
                                                  build/obj/vectors.o
Vector12C                                         /tmp/cceRjJvB.ltrans6.ltrans.o
                                                  build/obj/stm32_dma.o (symbol from plugin)
                                                  build/obj/vectors.o
Vector130                                         /tmp/cceRjJvB.ltrans6.ltrans.o
                                                  build/obj/stm32_dma.o (symbol from plugin)
                                                  build/obj/vectors.o
Vector134                                         build/obj/vectors.o
Vector138                                         build/obj/vectors.o
Vector13C                                         build/obj/vectors.o
Vector140                                         build/obj/vectors.o
Vector144                                         build/obj/vectors.o
Vector148                                         build/obj/vectors.o
Vector14C                                         /tmp/cceRjJvB.ltrans6.ltrans.o
                                                  build/obj/hal_usb_lld.o (symbol from plugin)
                                                  build/obj/vectors.o
Vector150                                         /tmp/cceRjJvB.ltrans6.ltrans.o
                                                  build/obj/stm32_dma.o (symbol from plugin)
                                                  build/obj/vectors.o
Vector154                                         /tmp/cceRjJvB.ltrans6.ltrans.o
                                                  build/obj/stm32_dma.o (symbol from plugin)
                                                  build/obj/vectors.o
Vector158                                         /tmp/cceRjJvB.ltrans6.ltrans.o
                                                  build/obj/stm32_dma.o (symbol from plugin)
                                                  build/obj/vectors.o
Vector15C                                         /tmp/cceRjJvB.ltrans4.ltrans.o
                                                  build/obj/hal_uart_lld.o (symbol from plugin)
                                                  build/obj/vectors.o
Vector160                                         build/obj/vectors.o
Vector164                                         build/obj/vectors.o
Vector168                                         build/obj/vectors.o
Vector16C                                         build/obj/vectors.o
Vector170                                         build/obj/vectors.o
Vector174                                         build/obj/vectors.o
Vector178                                         build/obj/vectors.o
Vector17C                                         build/obj/vectors.o
Vector180                                         build/obj/vectors.o
Vector184                                         build/obj/vectors.o
Vector188                                         build/obj/vectors.o
Vector18C                                         build/obj/vectors.o
Vector190                                         build/obj/vectors.o
Vector194                                         build/obj/vectors.o
Vector198                                         build/obj/vectors.o
Vector19C                                         build/obj/vectors.o
Vector1A0                                         build/obj/vectors.o
Vector1A4                                         build/obj/vectors.o
Vector1A8                                         build/obj/vectors.o
Vector1AC                                         build/obj/vectors.o
Vector1B0                                         build/obj/vectors.o
Vector1B4                                         build/obj/vectors.o
Vector1B8                                         build/obj/vectors.o
Vector1BC                                         build/obj/vectors.o
Vector1C                                          build/obj/vectors.o
Vector1C0                                         build/obj/vectors.o
Vector1C4                                         build/obj/vectors.o
Vector1C8                                         build/obj/vectors.o
Vector1CC                                         build/obj/vectors.o
Vector1D0                                         build/obj/vectors.o
Vector1D4                                         build/obj/vectors.o
Vector1D8                                         build/obj/vectors.o
Vector1DC                                         build/obj/vectors.o
Vector20                                          build/obj/vectors.o
Vector24                                          build/obj/vectors.o
Vector28                                          build/obj/vectors.o
Vector34                                          build/obj/vectors.o
Vector40                                          build/obj/vectors.o
Vector44                                          build/obj/vectors.o
Vector48                                          build/obj/vectors.o
Vector4C                                          build/obj/vectors.o
Vector50                                          build/obj/vectors.o
Vector54                                          build/obj/vectors.o
Vector58                                          build/obj/vectors.o
Vector5C                                          build/obj/vectors.o
Vector60                                          build/obj/vectors.o
Vector64                                          build/obj/vectors.o
Vector68                                          build/obj/vectors.o
Vector6C                                          /tmp/cceRjJvB.ltrans7.ltrans.o
                                                  build/obj/stm32_dma.o (symbol from plugin)
                                                  build/obj/vectors.o
Vector70                                          /tmp/cceRjJvB.ltrans7.ltrans.o
                                                  build/obj/stm32_dma.o (symbol from plugin)
                                                  build/obj/vectors.o
Vector74                                          /tmp/cceRjJvB.ltrans7.ltrans.o
                                                  build/obj/stm32_dma.o (symbol from plugin)
                                                  build/obj/vectors.o
Vector78                                          /tmp/cceRjJvB.ltrans7.ltrans.o
                                                  build/obj/stm32_dma.o (symbol from plugin)
                                                  build/obj/vectors.o
Vector7C                                          /tmp/cceRjJvB.ltrans7.ltrans.o
                                                  build/obj/stm32_dma.o (symbol from plugin)
                                                  build/obj/vectors.o
Vector80                                          /tmp/cceRjJvB.ltrans7.ltrans.o
                                                  build/obj/stm32_dma.o (symbol from plugin)
                                                  build/obj/vectors.o
Vector84                                          /tmp/cceRjJvB.ltrans7.ltrans.o
                                                  build/obj/stm32_dma.o (symbol from plugin)
                                                  build/obj/vectors.o
Vector88                                          build/obj/vectors.o
Vector8C                                          build/obj/vectors.o
Vector90                                          build/obj/vectors.o
Vector94                                          build/obj/vectors.o
Vector98                                          build/obj/vectors.o
Vector9C                                          build/obj/vectors.o
VectorA0                                          build/obj/vectors.o
VectorA4                                          build/obj/vectors.o
VectorA8                                          build/obj/vectors.o
VectorAC                                          build/obj/vectors.o
VectorB0                                          /tmp/cceRjJvB.ltrans5.ltrans.o
                                                  build/obj/hal_st_lld.o (symbol from plugin)
                                                  build/obj/vectors.o
VectorB4                                          build/obj/vectors.o
VectorB8                                          build/obj/vectors.o
VectorBC                                          build/obj/vectors.o
VectorC0                                          build/obj/vectors.o
VectorC4                                          build/obj/vectors.o
VectorC8                                          build/obj/vectors.o
VectorCC                                          build/obj/vectors.o
VectorD0                                          build/obj/vectors.o
VectorD4                                          /tmp/cceRjJvB.ltrans5.ltrans.o
                                                  build/obj/hal_serial_lld.o (symbol from plugin)
                                                  build/obj/vectors.o
VectorD8                                          /tmp/cceRjJvB.ltrans5.ltrans.o
                                                  build/obj/hal_serial_lld.o (symbol from plugin)
                                                  build/obj/vectors.o
VectorDC                                          build/obj/vectors.o
VectorE0                                          build/obj/vectors.o
VectorE4                                          build/obj/vectors.o
VectorE8                                          build/obj/vectors.o
VectorEC                                          build/obj/vectors.o
VectorF0                                          build/obj/vectors.o
VectorF4                                          build/obj/vectors.o
VectorF8                                          build/obj/vectors.o
VectorFC                                          /tmp/cceRjJvB.ltrans7.ltrans.o
                                                  build/obj/stm32_dma.o (symbol from plugin)
                                                  build/obj/vectors.o
__adddf3                                          /opt/Atollic_TrueSTUDIO_for_STM32_x86_64_9.1.0/ARMTools/bin/../lib/gcc/arm-atollic-eabi/6.3.1/armv7e-m/fpu/libgcc.a(_arm_addsubdf3.o)
__aeabi_d2f                                       /opt/Atollic_TrueSTUDIO_for_STM32_x86_64_9.1.0/ARMTools/bin/../lib/gcc/arm-atollic-eabi/6.3.1/armv7e-m/fpu/libgcc.a(_arm_truncdfsf2.o)
                                                  /tmp/cceRjJvB.ltrans0.ltrans.o
__aeabi_d2iz                                      /opt/Atollic_TrueSTUDIO_for_STM32_x86_64_9.1.0/ARMTools/bin/../lib/gcc/arm-atollic-eabi/6.3.1/armv7e-m/fpu/libgcc.a(_arm_fixdfsi.o)
                                                  /tmp/cceRjJvB.ltrans0.ltrans.o
__aeabi_dadd                                      /opt/Atollic_TrueSTUDIO_for_STM32_x86_64_9.1.0/ARMTools/bin/../lib/gcc/arm-atollic-eabi/6.3.1/armv7e-m/fpu/libgcc.a(_arm_addsubdf3.o)
__aeabi_ddiv                                      /opt/Atollic_TrueSTUDIO_for_STM32_x86_64_9.1.0/ARMTools/bin/../lib/gcc/arm-atollic-eabi/6.3.1/armv7e-m/fpu/libgcc.a(_arm_muldivdf3.o)
__aeabi_dmul                                      /opt/Atollic_TrueSTUDIO_for_STM32_x86_64_9.1.0/ARMTools/bin/../lib/gcc/arm-atollic-eabi/6.3.1/armv7e-m/fpu/libgcc.a(_arm_muldivdf3.o)
                                                  /tmp/cceRjJvB.ltrans0.ltrans.o
__aeabi_drsub                                     /opt/Atollic_TrueSTUDIO_for_STM32_x86_64_9.1.0/ARMTools/bin/../lib/gcc/arm-atollic-eabi/6.3.1/armv7e-m/fpu/libgcc.a(_arm_addsubdf3.o)
__aeabi_dsub                                      /opt/Atollic_TrueSTUDIO_for_STM32_x86_64_9.1.0/ARMTools/bin/../lib/gcc/arm-atollic-eabi/6.3.1/armv7e-m/fpu/libgcc.a(_arm_addsubdf3.o)
                                                  /tmp/cceRjJvB.ltrans0.ltrans.o
__aeabi_f2d                                       /opt/Atollic_TrueSTUDIO_for_STM32_x86_64_9.1.0/ARMTools/bin/../lib/gcc/arm-atollic-eabi/6.3.1/armv7e-m/fpu/libgcc.a(_arm_addsubdf3.o)
                                                  /tmp/cceRjJvB.ltrans0.ltrans.o
__aeabi_i2d                                       /opt/Atollic_TrueSTUDIO_for_STM32_x86_64_9.1.0/ARMTools/bin/../lib/gcc/arm-atollic-eabi/6.3.1/armv7e-m/fpu/libgcc.a(_arm_addsubdf3.o)
                                                  /tmp/cceRjJvB.ltrans0.ltrans.o
__aeabi_idiv0                                     /opt/Atollic_TrueSTUDIO_for_STM32_x86_64_9.1.0/ARMTools/bin/../lib/gcc/arm-atollic-eabi/6.3.1/armv7e-m/fpu/libgcc.a(_dvmd_tls.o)
__aeabi_l2d                                       /opt/Atollic_TrueSTUDIO_for_STM32_x86_64_9.1.0/ARMTools/bin/../lib/gcc/arm-atollic-eabi/6.3.1/armv7e-m/fpu/libgcc.a(_arm_addsubdf3.o)
__aeabi_ldiv0                                     /opt/Atollic_TrueSTUDIO_for_STM32_x86_64_9.1.0/ARMTools/bin/../lib/gcc/arm-atollic-eabi/6.3.1/armv7e-m/fpu/libgcc.a(_dvmd_tls.o)
                                                  /opt/Atollic_TrueSTUDIO_for_STM32_x86_64_9.1.0/ARMTools/bin/../lib/gcc/arm-atollic-eabi/6.3.1/armv7e-m/fpu/libgcc.a(_aeabi_uldivmod.o)
__aeabi_ui2d                                      /opt/Atollic_TrueSTUDIO_for_STM32_x86_64_9.1.0/ARMTools/bin/../lib/gcc/arm-atollic-eabi/6.3.1/armv7e-m/fpu/libgcc.a(_arm_addsubdf3.o)
                                                  /tmp/cceRjJvB.ltrans0.ltrans.o
__aeabi_ul2d                                      /opt/Atollic_TrueSTUDIO_for_STM32_x86_64_9.1.0/ARMTools/bin/../lib/gcc/arm-atollic-eabi/6.3.1/armv7e-m/fpu/libgcc.a(_arm_addsubdf3.o)
__aeabi_uldivmod                                  /opt/Atollic_TrueSTUDIO_for_STM32_x86_64_9.1.0/ARMTools/bin/../lib/gcc/arm-atollic-eabi/6.3.1/armv7e-m/fpu/libgcc.a(_aeabi_uldivmod.o)
                                                  /tmp/cceRjJvB.ltrans0.ltrans.o
__core_init                                       /tmp/cceRjJvB.ltrans9.ltrans.o
                                                  build/obj/crt1.o (symbol from plugin)
                                                  build/obj/crt0_v7m.o
__default_exit                                    /tmp/cceRjJvB.ltrans9.ltrans.o
                                                  build/obj/crt1.o (symbol from plugin)
                                                  build/obj/crt0_v7m.o
__divdf3                                          /opt/Atollic_TrueSTUDIO_for_STM32_x86_64_9.1.0/ARMTools/bin/../lib/gcc/arm-atollic-eabi/6.3.1/armv7e-m/fpu/libgcc.a(_arm_muldivdf3.o)
__early_init                                      /tmp/cceRjJvB.ltrans4.ltrans.o
                                                  build/obj/board.o (symbol from plugin)
                                                  build/obj/crt1.o (symbol from plugin)
                                                  build/obj/crt0_v7m.o
__extendsfdf2                                     /opt/Atollic_TrueSTUDIO_for_STM32_x86_64_9.1.0/ARMTools/bin/../lib/gcc/arm-atollic-eabi/6.3.1/armv7e-m/fpu/libgcc.a(_arm_addsubdf3.o)
__fini_array_end                                  build/obj/crt0_v7m.o
__fini_array_start                                build/obj/crt0_v7m.o
__fixdfsi                                         /opt/Atollic_TrueSTUDIO_for_STM32_x86_64_9.1.0/ARMTools/bin/../lib/gcc/arm-atollic-eabi/6.3.1/armv7e-m/fpu/libgcc.a(_arm_fixdfsi.o)
__floatdidf                                       /opt/Atollic_TrueSTUDIO_for_STM32_x86_64_9.1.0/ARMTools/bin/../lib/gcc/arm-atollic-eabi/6.3.1/armv7e-m/fpu/libgcc.a(_arm_addsubdf3.o)
__floatsidf                                       /opt/Atollic_TrueSTUDIO_for_STM32_x86_64_9.1.0/ARMTools/bin/../lib/gcc/arm-atollic-eabi/6.3.1/armv7e-m/fpu/libgcc.a(_arm_addsubdf3.o)
__floatundidf                                     /opt/Atollic_TrueSTUDIO_for_STM32_x86_64_9.1.0/ARMTools/bin/../lib/gcc/arm-atollic-eabi/6.3.1/armv7e-m/fpu/libgcc.a(_arm_addsubdf3.o)
__floatunsidf                                     /opt/Atollic_TrueSTUDIO_for_STM32_x86_64_9.1.0/ARMTools/bin/../lib/gcc/arm-atollic-eabi/6.3.1/armv7e-m/fpu/libgcc.a(_arm_addsubdf3.o)
__heap_base__                                     /tmp/cceRjJvB.ltrans1.ltrans.o
                                                  build/obj/chmemcore.o (symbol from plugin)
__heap_end__                                      /tmp/cceRjJvB.ltrans1.ltrans.o
                                                  build/obj/chmemcore.o (symbol from plugin)
__init_array_end                                  build/obj/crt0_v7m.o
__init_array_start                                build/obj/crt0_v7m.o
__init_ram_areas                                  /tmp/cceRjJvB.ltrans9.ltrans.o
                                                  build/obj/crt1.o (symbol from plugin)
                                                  build/obj/crt0_v7m.o
__late_init                                       /tmp/cceRjJvB.ltrans9.ltrans.o
                                                  build/obj/crt1.o (symbol from plugin)
                                                  build/obj/crt0_v7m.o
__main_stack_base__                               build/obj/crt0_v7m.o
__main_stack_end__                                build/obj/vectors.o
                                                  build/obj/crt0_v7m.o
__muldf3                                          /opt/Atollic_TrueSTUDIO_for_STM32_x86_64_9.1.0/ARMTools/bin/../lib/gcc/arm-atollic-eabi/6.3.1/armv7e-m/fpu/libgcc.a(_arm_muldivdf3.o)
__process_stack_base__                            build/obj/crt0_v7m.o
__process_stack_end__                             build/obj/crt0_v7m.o
__ram0_clear__                                    /tmp/cceRjJvB.ltrans0.ltrans.o
                                                  build/obj/crt1.o (symbol from plugin)
__ram0_init__                                     /tmp/cceRjJvB.ltrans0.ltrans.o
                                                  build/obj/crt1.o (symbol from plugin)
__ram0_init_text__                                /tmp/cceRjJvB.ltrans0.ltrans.o
                                                  build/obj/crt1.o (symbol from plugin)
__ram0_noinit__                                   /tmp/cceRjJvB.ltrans0.ltrans.o
                                                  build/obj/crt1.o (symbol from plugin)
__ram1_clear__                                    /tmp/cceRjJvB.ltrans0.ltrans.o
                                                  build/obj/crt1.o (symbol from plugin)
__ram1_init__                                     /tmp/cceRjJvB.ltrans0.ltrans.o
                                                  build/obj/crt1.o (symbol from plugin)
__ram1_init_text__                                /tmp/cceRjJvB.ltrans0.ltrans.o
                                                  build/obj/crt1.o (symbol from plugin)
__ram1_noinit__                                   /tmp/cceRjJvB.ltrans0.ltrans.o
                                                  build/obj/crt1.o (symbol from plugin)
__ram2_clear__                                    /tmp/cceRjJvB.ltrans0.ltrans.o
                                                  build/obj/crt1.o (symbol from plugin)
__ram2_init__                                     /tmp/cceRjJvB.ltrans0.ltrans.o
                                                  build/obj/crt1.o (symbol from plugin)
__ram2_init_text__                                /tmp/cceRjJvB.ltrans0.ltrans.o
                                                  build/obj/crt1.o (symbol from plugin)
__ram2_noinit__                                   /tmp/cceRjJvB.ltrans0.ltrans.o
                                                  build/obj/crt1.o (symbol from plugin)
__ram3_clear__                                    /tmp/cceRjJvB.ltrans0.ltrans.o
                                                  build/obj/crt1.o (symbol from plugin)
__ram3_init__                                     /tmp/cceRjJvB.ltrans0.ltrans.o
                                                  build/obj/crt1.o (symbol from plugin)
__ram3_init_text__                                /tmp/cceRjJvB.ltrans0.ltrans.o
                                                  build/obj/crt1.o (symbol from plugin)
__ram3_noinit__                                   /tmp/cceRjJvB.ltrans0.ltrans.o
                                                  build/obj/crt1.o (symbol from plugin)
__ram4_clear__                                    /tmp/cceRjJvB.ltrans0.ltrans.o
                                                  build/obj/crt1.o (symbol from plugin)
__ram4_init__                                     /tmp/cceRjJvB.ltrans0.ltrans.o
                                                  build/obj/crt1.o (symbol from plugin)
__ram4_init_text__                                /tmp/cceRjJvB.ltrans0.ltrans.o
                                                  build/obj/crt1.o (symbol from plugin)
__ram4_noinit__                                   /tmp/cceRjJvB.ltrans0.ltrans.o
                                                  build/obj/crt1.o (symbol from plugin)
__ram5_clear__                                    /tmp/cceRjJvB.ltrans0.ltrans.o
                                                  build/obj/crt1.o (symbol from plugin)
__ram5_init__                                     /tmp/cceRjJvB.ltrans0.ltrans.o
                                                  build/obj/crt1.o (symbol from plugin)
__ram5_init_text__                                /tmp/cceRjJvB.ltrans0.ltrans.o
                                                  build/obj/crt1.o (symbol from plugin)
__ram5_noinit__                                   /tmp/cceRjJvB.ltrans0.ltrans.o
                                                  build/obj/crt1.o (symbol from plugin)
__ram6_clear__                                    /tmp/cceRjJvB.ltrans0.ltrans.o
                                                  build/obj/crt1.o (symbol from plugin)
__ram6_init__                                     /tmp/cceRjJvB.ltrans0.ltrans.o
                                                  build/obj/crt1.o (symbol from plugin)
__ram6_init_text__                                /tmp/cceRjJvB.ltrans0.ltrans.o
                                                  build/obj/crt1.o (symbol from plugin)
__ram6_noinit__                                   /tmp/cceRjJvB.ltrans0.ltrans.o
                                                  build/obj/crt1.o (symbol from plugin)
__ram7_clear__                                    /tmp/cceRjJvB.ltrans0.ltrans.o
                                                  build/obj/crt1.o (symbol from plugin)
__ram7_init__                                     /tmp/cceRjJvB.ltrans0.ltrans.o
                                                  build/obj/crt1.o (symbol from plugin)
__ram7_init_text__                                /tmp/cceRjJvB.ltrans0.ltrans.o
                                                  build/obj/crt1.o (symbol from plugin)
__ram7_noinit__                                   /tmp/cceRjJvB.ltrans0.ltrans.o
                                                  build/obj/crt1.o (symbol from plugin)
__subdf3                                          /opt/Atollic_TrueSTUDIO_for_STM32_x86_64_9.1.0/ARMTools/bin/../lib/gcc/arm-atollic-eabi/6.3.1/armv7e-m/fpu/libgcc.a(_arm_addsubdf3.o)
__truncdfsf2                                      /opt/Atollic_TrueSTUDIO_for_STM32_x86_64_9.1.0/ARMTools/bin/../lib/gcc/arm-atollic-eabi/6.3.1/armv7e-m/fpu/libgcc.a(_arm_truncdfsf2.o)
__udivmoddi4                                      /opt/Atollic_TrueSTUDIO_for_STM32_x86_64_9.1.0/ARMTools/bin/../lib/gcc/arm-atollic-eabi/6.3.1/armv7e-m/fpu/libgcc.a(_udivmoddi4.o)
                                                  /opt/Atollic_TrueSTUDIO_for_STM32_x86_64_9.1.0/ARMTools/bin/../lib/gcc/arm-atollic-eabi/6.3.1/armv7e-m/fpu/libgcc.a(_aeabi_uldivmod.o)
_bss_end                                          build/obj/crt0_v7m.o
_bss_start                                        build/obj/crt0_v7m.o
_core_init                                        /tmp/cceRjJvB.ltrans1.ltrans.o
                                                  build/obj/chmemcore.o (symbol from plugin)
                                                  /tmp/cceRjJvB.ltrans4.ltrans.o
                                                  build/obj/chsys.o (symbol from plugin)
_crt0_entry                                       build/obj/crt0_v7m.o
                                                  build/obj/vectors.o
_ctl.lto_priv.29                                  /tmp/cceRjJvB.ltrans8.ltrans.o
                                                  /tmp/cceRjJvB.ltrans0.ltrans.o
_ctl.lto_priv.30                                  /tmp/cceRjJvB.ltrans8.ltrans.o
                                                  /tmp/cceRjJvB.ltrans0.ltrans.o
_data_end                                         build/obj/crt0_v7m.o
_data_start                                       build/obj/crt0_v7m.o
_factory_init                                     /tmp/cceRjJvB.ltrans1.ltrans.o
                                                  build/obj/chfactory.o (symbol from plugin)
                                                  /tmp/cceRjJvB.ltrans4.ltrans.o
                                                  build/obj/chsys.o (symbol from plugin)
_get.lto_priv.8                                   /tmp/cceRjJvB.ltrans8.ltrans.o
                                                  /tmp/cceRjJvB.ltrans0.ltrans.o
_get.lto_priv.9                                   /tmp/cceRjJvB.ltrans8.ltrans.o
                                                  /tmp/cceRjJvB.ltrans0.ltrans.o
_gett.lto_priv.23                                 /tmp/cceRjJvB.ltrans8.ltrans.o
                                                  /tmp/cceRjJvB.ltrans0.ltrans.o
_gett.lto_priv.24                                 /tmp/cceRjJvB.ltrans8.ltrans.o
                                                  /tmp/cceRjJvB.ltrans0.ltrans.o
_heap_init                                        /tmp/cceRjJvB.ltrans1.ltrans.o
                                                  build/obj/chheap.o (symbol from plugin)
                                                  /tmp/cceRjJvB.ltrans4.ltrans.o
                                                  build/obj/chsys.o (symbol from plugin)
_idle_thread.lto_priv.16                          /tmp/cceRjJvB.ltrans4.ltrans.o
                                                  /tmp/cceRjJvB.ltrans0.ltrans.o
_pal_events                                       build/obj/hal_pal_lld.o (symbol from plugin)
_pal_lld_init                                     /tmp/cceRjJvB.ltrans6.ltrans.o
                                                  build/obj/hal_pal_lld.o (symbol from plugin)
                                                  /tmp/cceRjJvB.ltrans9.ltrans.o
                                                  build/obj/hal.o (symbol from plugin)
_pal_lld_setgroupmode                             /tmp/cceRjJvB.ltrans6.ltrans.o
                                                  build/obj/hal_pal_lld.o (symbol from plugin)
                                                  /tmp/cceRjJvB.ltrans8.ltrans.o
                                                  build/obj/hal_pal.o (symbol from plugin)
_port_exit_from_isr                               build/obj/chcoreasm_v7m.o
                                                  /tmp/cceRjJvB.ltrans1.ltrans.o
                                                  build/obj/chcore_v7m.o (symbol from plugin)
_port_irq_epilogue                                /tmp/cceRjJvB.ltrans1.ltrans.o
                                                  build/obj/chcore_v7m.o (symbol from plugin)
                                                  /tmp/cceRjJvB.ltrans7.ltrans.o
                                                  /tmp/cceRjJvB.ltrans6.ltrans.o
                                                  /tmp/cceRjJvB.ltrans5.ltrans.o
                                                  /tmp/cceRjJvB.ltrans4.ltrans.o
                                                  build/obj/hal_uart_lld.o (symbol from plugin)
                                                  build/obj/hal_serial_lld.o (symbol from plugin)
                                                  build/obj/hal_st_lld.o (symbol from plugin)
                                                  build/obj/hal_usb_lld.o (symbol from plugin)
                                                  build/obj/stm32_dma.o (symbol from plugin)
_port_switch                                      build/obj/chcoreasm_v7m.o
                                                  /tmp/cceRjJvB.ltrans4.ltrans.o
                                                  build/obj/chschd.o (symbol from plugin)
_port_switch_from_isr                             build/obj/chcoreasm_v7m.o
                                                  /tmp/cceRjJvB.ltrans1.ltrans.o
                                                  build/obj/chcore_v7m.o (symbol from plugin)
_port_thread_start                                build/obj/chcoreasm_v7m.o
                                                  /tmp/cceRjJvB.ltrans3.ltrans.o
                                                  build/obj/chthreads.o (symbol from plugin)
_put.lto_priv.11                                  /tmp/cceRjJvB.ltrans8.ltrans.o
                                                  /tmp/cceRjJvB.ltrans0.ltrans.o
_put.lto_priv.12                                  /tmp/cceRjJvB.ltrans8.ltrans.o
                                                  /tmp/cceRjJvB.ltrans0.ltrans.o
_putt.lto_priv.21                                 /tmp/cceRjJvB.ltrans8.ltrans.o
                                                  /tmp/cceRjJvB.ltrans0.ltrans.o
_putt.lto_priv.22                                 /tmp/cceRjJvB.ltrans8.ltrans.o
                                                  /tmp/cceRjJvB.ltrans0.ltrans.o
_read.lto_priv.19                                 /tmp/cceRjJvB.ltrans8.ltrans.o
                                                  /tmp/cceRjJvB.ltrans0.ltrans.o
_read.lto_priv.20                                 /tmp/cceRjJvB.ltrans8.ltrans.o
                                                  /tmp/cceRjJvB.ltrans0.ltrans.o
_readt.lto_priv.27                                /tmp/cceRjJvB.ltrans8.ltrans.o
                                                  /tmp/cceRjJvB.ltrans0.ltrans.o
_readt.lto_priv.28                                /tmp/cceRjJvB.ltrans8.ltrans.o
                                                  /tmp/cceRjJvB.ltrans0.ltrans.o
_scheduler_init                                   build/obj/chschd.o (symbol from plugin)
                                                  build/obj/chsys.o (symbol from plugin)
_stm32_dma_streams                                /tmp/cceRjJvB.ltrans0.ltrans.o
                                                  build/obj/stm32_dma.o (symbol from plugin)
                                                  /tmp/cceRjJvB.ltrans6.ltrans.o
                                                  /tmp/cceRjJvB.ltrans5.ltrans.o
                                                  /tmp/cceRjJvB.ltrans4.ltrans.o
                                                  build/obj/hal_uart_lld.o (symbol from plugin)
                                                  build/obj/hal_spi_lld.o (symbol from plugin)
_textdata_start                                   build/obj/crt0_v7m.o
_thread_init                                      /tmp/cceRjJvB.ltrans3.ltrans.o
                                                  build/obj/chthreads.o (symbol from plugin)
                                                  /tmp/cceRjJvB.ltrans4.ltrans.o
                                                  build/obj/chsys.o (symbol from plugin)
_tm_init                                          /tmp/cceRjJvB.ltrans3.ltrans.o
                                                  build/obj/chtm.o (symbol from plugin)
                                                  /tmp/cceRjJvB.ltrans4.ltrans.o
                                                  build/obj/chsys.o (symbol from plugin)
_unhandled_exception                              build/obj/vectors.o
_usb_ep0in                                        /tmp/cceRjJvB.ltrans7.ltrans.o
                                                  build/obj/hal_usb.o (symbol from plugin)
                                                  /tmp/cceRjJvB.ltrans0.ltrans.o
                                                  build/obj/hal_usb_lld.o (symbol from plugin)
_usb_ep0out                                       /tmp/cceRjJvB.ltrans7.ltrans.o
                                                  build/obj/hal_usb.o (symbol from plugin)
                                                  /tmp/cceRjJvB.ltrans0.ltrans.o
                                                  build/obj/hal_usb_lld.o (symbol from plugin)
_usb_ep0setup                                     /tmp/cceRjJvB.ltrans7.ltrans.o
                                                  build/obj/hal_usb.o (symbol from plugin)
                                                  /tmp/cceRjJvB.ltrans0.ltrans.o
                                                  build/obj/hal_usb_lld.o (symbol from plugin)
_usb_reset                                        /tmp/cceRjJvB.ltrans7.ltrans.o
                                                  build/obj/hal_usb.o (symbol from plugin)
                                                  /tmp/cceRjJvB.ltrans6.ltrans.o
                                                  build/obj/hal_usb_lld.o (symbol from plugin)
_usb_suspend                                      /tmp/cceRjJvB.ltrans7.ltrans.o
                                                  build/obj/hal_usb.o (symbol from plugin)
                                                  /tmp/cceRjJvB.ltrans6.ltrans.o
                                                  build/obj/hal_usb_lld.o (symbol from plugin)
_usb_wakeup                                       /tmp/cceRjJvB.ltrans7.ltrans.o
                                                  build/obj/hal_usb.o (symbol from plugin)
                                                  /tmp/cceRjJvB.ltrans6.ltrans.o
                                                  build/obj/hal_usb_lld.o (symbol from plugin)
_vectors                                          build/obj/vectors.o
                                                  build/obj/crt0_v7m.o
_vt_init                                          build/obj/chvt.o (symbol from plugin)
                                                  build/obj/chsys.o (symbol from plugin)
_write.lto_priv.17                                /tmp/cceRjJvB.ltrans8.ltrans.o
                                                  /tmp/cceRjJvB.ltrans0.ltrans.o
_write.lto_priv.18                                /tmp/cceRjJvB.ltrans8.ltrans.o
                                                  /tmp/cceRjJvB.ltrans0.ltrans.o
_writet.lto_priv.25                               /tmp/cceRjJvB.ltrans8.ltrans.o
                                                  /tmp/cceRjJvB.ltrans0.ltrans.o
_writet.lto_priv.26                               /tmp/cceRjJvB.ltrans8.ltrans.o
                                                  /tmp/cceRjJvB.ltrans0.ltrans.o
active_status.lto_priv.186                        /tmp/cceRjJvB.ltrans0.ltrans.o
                                                  /tmp/cceRjJvB.ltrans7.ltrans.o
boardInit                                         /tmp/cceRjJvB.ltrans4.ltrans.o
                                                  build/obj/board.o (symbol from plugin)
                                                  /tmp/cceRjJvB.ltrans9.ltrans.o
                                                  build/obj/hal.o (symbol from plugin)
bsem                                              build/obj/main.o (symbol from plugin)
ch                                                /tmp/cceRjJvB.ltrans0.ltrans.o
                                                  build/obj/chschd.o (symbol from plugin)
                                                  /tmp/cceRjJvB.ltrans4.ltrans.o
                                                  /tmp/cceRjJvB.ltrans3.ltrans.o
                                                  /tmp/cceRjJvB.ltrans2.ltrans.o
                                                  build/obj/main.o (symbol from plugin)
                                                  build/obj/chmsg.o (symbol from plugin)
                                                  build/obj/chevents.o (symbol from plugin)
                                                  build/obj/chcond.o (symbol from plugin)
                                                  build/obj/chmtx.o (symbol from plugin)
                                                  build/obj/chsem.o (symbol from plugin)
                                                  build/obj/chregistry.o (symbol from plugin)
                                                  build/obj/chtm.o (symbol from plugin)
                                                  build/obj/chthreads.o (symbol from plugin)
                                                  build/obj/chvt.o (symbol from plugin)
                                                  build/obj/chsys.o (symbol from plugin)
chCondBroadcast                                   build/obj/chcond.o (symbol from plugin)
chCondBroadcastI                                  build/obj/chcond.o (symbol from plugin)
chCondObjectInit                                  build/obj/chcond.o (symbol from plugin)
chCondSignal                                      build/obj/chcond.o (symbol from plugin)
chCondSignalI                                     build/obj/chcond.o (symbol from plugin)
chCondWait                                        build/obj/chcond.o (symbol from plugin)
chCondWaitS                                       build/obj/chcond.o (symbol from plugin)
chCondWaitTimeout                                 build/obj/chcond.o (symbol from plugin)
chCondWaitTimeoutS                                build/obj/chcond.o (symbol from plugin)
chCoreAllocAlignedWithOffset                      build/obj/chmemcore.o (symbol from plugin)
                                                  build/obj/chheap.o (symbol from plugin)
chCoreAllocAlignedWithOffsetI                     build/obj/chmemcore.o (symbol from plugin)
                                                  build/obj/chfactory.o (symbol from plugin)
chCoreGetStatusX                                  build/obj/chmemcore.o (symbol from plugin)
chEvtAddEvents                                    build/obj/chevents.o (symbol from plugin)
chEvtBroadcastFlags                               build/obj/chevents.o (symbol from plugin)
chEvtBroadcastFlagsI                              /tmp/cceRjJvB.ltrans2.ltrans.o
                                                  build/obj/chevents.o (symbol from plugin)
                                                  /tmp/cceRjJvB.ltrans8.ltrans.o
                                                  /tmp/cceRjJvB.ltrans5.ltrans.o
                                                  build/obj/hal_serial_lld.o (symbol from plugin)
                                                  build/obj/hal_serial_usb.o (symbol from plugin)
                                                  build/obj/hal_serial.o (symbol from plugin)
chEvtDispatch                                     build/obj/chevents.o (symbol from plugin)
chEvtGetAndClearEvents                            build/obj/chevents.o (symbol from plugin)
chEvtGetAndClearEventsI                           build/obj/chevents.o (symbol from plugin)
chEvtGetAndClearFlags                             build/obj/chevents.o (symbol from plugin)
chEvtGetAndClearFlagsI                            build/obj/chevents.o (symbol from plugin)
chEvtRegisterMaskWithFlags                        build/obj/chevents.o (symbol from plugin)
chEvtSignal                                       build/obj/chevents.o (symbol from plugin)
chEvtSignalI                                      build/obj/chevents.o (symbol from plugin)
chEvtUnregister                                   build/obj/chevents.o (symbol from plugin)
chEvtWaitAll                                      build/obj/chevents.o (symbol from plugin)
chEvtWaitAllTimeout                               build/obj/chevents.o (symbol from plugin)
chEvtWaitAny                                      build/obj/chevents.o (symbol from plugin)
chEvtWaitAnyTimeout                               build/obj/chevents.o (symbol from plugin)
chEvtWaitOne                                      build/obj/chevents.o (symbol from plugin)
chEvtWaitOneTimeout                               build/obj/chevents.o (symbol from plugin)
chFactoryCreateBuffer                             build/obj/chfactory.o (symbol from plugin)
chFactoryCreateMailbox                            build/obj/chfactory.o (symbol from plugin)
chFactoryCreateObjectsFIFO                        build/obj/chfactory.o (symbol from plugin)
chFactoryCreateSemaphore                          build/obj/chfactory.o (symbol from plugin)
chFactoryFindBuffer                               build/obj/chfactory.o (symbol from plugin)
chFactoryFindMailbox                              build/obj/chfactory.o (symbol from plugin)
chFactoryFindObject                               build/obj/chfactory.o (symbol from plugin)
chFactoryFindObjectByPointer                      build/obj/chfactory.o (symbol from plugin)
chFactoryFindObjectsFIFO                          build/obj/chfactory.o (symbol from plugin)
chFactoryFindSemaphore                            build/obj/chfactory.o (symbol from plugin)
chFactoryRegisterObject                           build/obj/chfactory.o (symbol from plugin)
chFactoryReleaseBuffer                            build/obj/chfactory.o (symbol from plugin)
chFactoryReleaseMailbox                           build/obj/chfactory.o (symbol from plugin)
chFactoryReleaseObject                            build/obj/chfactory.o (symbol from plugin)
chFactoryReleaseObjectsFIFO                       build/obj/chfactory.o (symbol from plugin)
chFactoryReleaseSemaphore                         build/obj/chfactory.o (symbol from plugin)
chGuardedPoolAllocTimeout                         build/obj/chmempools.o (symbol from plugin)
chGuardedPoolAllocTimeoutS                        build/obj/chmempools.o (symbol from plugin)
chGuardedPoolFree                                 build/obj/chmempools.o (symbol from plugin)
chGuardedPoolFreeI                                build/obj/chmempools.o (symbol from plugin)
chGuardedPoolLoadArray                            build/obj/chmempools.o (symbol from plugin)
                                                  build/obj/chfactory.o (symbol from plugin)
chGuardedPoolObjectInitAligned                    build/obj/chmempools.o (symbol from plugin)
                                                  build/obj/chfactory.o (symbol from plugin)
chHeapAllocAligned                                /tmp/cceRjJvB.ltrans1.ltrans.o
                                                  build/obj/chheap.o (symbol from plugin)
                                                  /tmp/cceRjJvB.ltrans2.ltrans.o
                                                  build/obj/chfactory.o (symbol from plugin)
                                                  build/obj/chdynamic.o (symbol from plugin)
chHeapFree                                        /tmp/cceRjJvB.ltrans1.ltrans.o
                                                  build/obj/chheap.o (symbol from plugin)
                                                  /tmp/cceRjJvB.ltrans3.ltrans.o
                                                  build/obj/chfactory.o (symbol from plugin)
                                                  build/obj/chthreads.o (symbol from plugin)
chHeapObjectInit                                  build/obj/chheap.o (symbol from plugin)
chHeapStatus                                      build/obj/chheap.o (symbol from plugin)
chMBFetchI                                        build/obj/chmboxes.o (symbol from plugin)
chMBFetchTimeout                                  build/obj/chmboxes.o (symbol from plugin)
chMBFetchTimeoutS                                 /tmp/cceRjJvB.ltrans1.ltrans.o
                                                  build/obj/chmboxes.o (symbol from plugin)
                                                  /tmp/cceRjJvB.ltrans2.ltrans.o
chMBGetUsedCountI.lto_priv.45                     /tmp/cceRjJvB.ltrans2.ltrans.o
                                                  /tmp/cceRjJvB.ltrans1.ltrans.o
chMBObjectInit                                    /tmp/cceRjJvB.ltrans2.ltrans.o
                                                  build/obj/chmboxes.o (symbol from plugin)
                                                  /tmp/cceRjJvB.ltrans1.ltrans.o
                                                  build/obj/chfactory.o (symbol from plugin)
chMBPostAheadI                                    build/obj/chmboxes.o (symbol from plugin)
chMBPostAheadTimeout                              build/obj/chmboxes.o (symbol from plugin)
chMBPostAheadTimeoutS                             build/obj/chmboxes.o (symbol from plugin)
chMBPostI                                         build/obj/chmboxes.o (symbol from plugin)
chMBPostTimeout                                   build/obj/chmboxes.o (symbol from plugin)
chMBPostTimeoutS                                  build/obj/chmboxes.o (symbol from plugin)
chMBReset                                         build/obj/chmboxes.o (symbol from plugin)
chMBResetI                                        build/obj/chmboxes.o (symbol from plugin)
chMsgRelease                                      build/obj/chmsg.o (symbol from plugin)
chMsgSend                                         build/obj/chmsg.o (symbol from plugin)
chMsgWait                                         build/obj/chmsg.o (symbol from plugin)
chMtxLock                                         /tmp/cceRjJvB.ltrans2.ltrans.o
                                                  build/obj/chmtx.o (symbol from plugin)
                                                  /tmp/cceRjJvB.ltrans8.ltrans.o
                                                  /tmp/cceRjJvB.ltrans1.ltrans.o
                                                  /tmp/cceRjJvB.ltrans0.ltrans.o
                                                  build/obj/main.o (symbol from plugin)
                                                  build/obj/chfactory.o (symbol from plugin)
                                                  build/obj/chheap.o (symbol from plugin)
                                                  build/obj/hal_spi.o (symbol from plugin)
chMtxLockS                                        build/obj/chmtx.o (symbol from plugin)
                                                  build/obj/chcond.o (symbol from plugin)
chMtxObjectInit                                   /tmp/cceRjJvB.ltrans2.ltrans.o
                                                  build/obj/chmtx.o (symbol from plugin)
                                                  /tmp/cceRjJvB.ltrans8.ltrans.o
                                                  /tmp/cceRjJvB.ltrans1.ltrans.o
                                                  /tmp/cceRjJvB.ltrans0.ltrans.o
                                                  build/obj/main.o (symbol from plugin)
                                                  build/obj/chfactory.o (symbol from plugin)
                                                  build/obj/chheap.o (symbol from plugin)
                                                  build/obj/hal_spi.o (symbol from plugin)
chMtxQueueNotEmptyS.lto_priv.76                   /tmp/cceRjJvB.ltrans3.ltrans.o
                                                  /tmp/cceRjJvB.ltrans2.ltrans.o
chMtxTryLock                                      build/obj/chmtx.o (symbol from plugin)
chMtxTryLockS                                     build/obj/chmtx.o (symbol from plugin)
chMtxUnlock                                       /tmp/cceRjJvB.ltrans2.ltrans.o
                                                  build/obj/chmtx.o (symbol from plugin)
                                                  /tmp/cceRjJvB.ltrans8.ltrans.o
                                                  /tmp/cceRjJvB.ltrans1.ltrans.o
                                                  /tmp/cceRjJvB.ltrans0.ltrans.o
                                                  build/obj/main.o (symbol from plugin)
                                                  build/obj/chfactory.o (symbol from plugin)
                                                  build/obj/chheap.o (symbol from plugin)
                                                  build/obj/hal_spi.o (symbol from plugin)
chMtxUnlockAll                                    build/obj/chmtx.o (symbol from plugin)
chMtxUnlockAllS                                   build/obj/chmtx.o (symbol from plugin)
chMtxUnlockS                                      build/obj/chmtx.o (symbol from plugin)
                                                  build/obj/chcond.o (symbol from plugin)
chPoolAlloc                                       /tmp/cceRjJvB.ltrans1.ltrans.o
                                                  build/obj/chmempools.o (symbol from plugin)
                                                  /tmp/cceRjJvB.ltrans2.ltrans.o
                                                  build/obj/chfactory.o (symbol from plugin)
                                                  build/obj/chdynamic.o (symbol from plugin)
chPoolAllocI                                      build/obj/chmempools.o (symbol from plugin)
chPoolFree                                        /tmp/cceRjJvB.ltrans1.ltrans.o
                                                  build/obj/chmempools.o (symbol from plugin)
                                                  /tmp/cceRjJvB.ltrans3.ltrans.o
                                                  build/obj/chfactory.o (symbol from plugin)
                                                  build/obj/chthreads.o (symbol from plugin)
chPoolFreeI                                       build/obj/chmempools.o (symbol from plugin)
chPoolLoadArray                                   build/obj/chmempools.o (symbol from plugin)
chPoolObjectInitAligned                           build/obj/chmempools.o (symbol from plugin)
                                                  build/obj/chfactory.o (symbol from plugin)
chRegFindThreadByName                             build/obj/chregistry.o (symbol from plugin)
chRegFindThreadByPointer                          build/obj/chregistry.o (symbol from plugin)
chRegFindThreadByWorkingArea                      build/obj/chregistry.o (symbol from plugin)
chRegFirstThread                                  build/obj/chregistry.o (symbol from plugin)
chRegNextThread                                   build/obj/chregistry.o (symbol from plugin)
chSchDoReschedule                                 /tmp/cceRjJvB.ltrans4.ltrans.o
                                                  build/obj/chschd.o (symbol from plugin)
                                                  build/obj/chcoreasm_v7m.o
chSchDoRescheduleAhead                            build/obj/chschd.o (symbol from plugin)
chSchDoRescheduleBehind                           build/obj/chschd.o (symbol from plugin)
                                                  build/obj/chthreads.o (symbol from plugin)
chSchDoYieldS.lto_priv.100                        /tmp/cceRjJvB.ltrans4.ltrans.o
                                                  /tmp/cceRjJvB.ltrans3.ltrans.o
chSchGoSleepS                                     /tmp/cceRjJvB.ltrans4.ltrans.o
                                                  build/obj/chschd.o (symbol from plugin)
                                                  /tmp/cceRjJvB.ltrans3.ltrans.o
                                                  /tmp/cceRjJvB.ltrans2.ltrans.o
                                                  build/obj/chmsg.o (symbol from plugin)
                                                  build/obj/chevents.o (symbol from plugin)
                                                  build/obj/chcond.o (symbol from plugin)
                                                  build/obj/chmtx.o (symbol from plugin)
                                                  build/obj/chsem.o (symbol from plugin)
                                                  build/obj/chthreads.o (symbol from plugin)
chSchGoSleepTimeoutS                              /tmp/cceRjJvB.ltrans4.ltrans.o
                                                  build/obj/chschd.o (symbol from plugin)
                                                  /tmp/cceRjJvB.ltrans3.ltrans.o
                                                  /tmp/cceRjJvB.ltrans2.ltrans.o
                                                  build/obj/chevents.o (symbol from plugin)
                                                  build/obj/chcond.o (symbol from plugin)
                                                  build/obj/chsem.o (symbol from plugin)
                                                  build/obj/chthreads.o (symbol from plugin)
chSchIsPreemptionRequired                         /tmp/cceRjJvB.ltrans4.ltrans.o
                                                  build/obj/chschd.o (symbol from plugin)
                                                  /tmp/cceRjJvB.ltrans1.ltrans.o
                                                  build/obj/chcore_v7m.o (symbol from plugin)
chSchReadyAheadI                                  build/obj/chschd.o (symbol from plugin)
chSchReadyI                                       /tmp/cceRjJvB.ltrans4.ltrans.o
                                                  build/obj/chschd.o (symbol from plugin)
                                                  /tmp/cceRjJvB.ltrans3.ltrans.o
                                                  /tmp/cceRjJvB.ltrans2.ltrans.o
                                                  build/obj/chmsg.o (symbol from plugin)
                                                  build/obj/chevents.o (symbol from plugin)
                                                  build/obj/chcond.o (symbol from plugin)
                                                  build/obj/chmtx.o (symbol from plugin)
                                                  build/obj/chsem.o (symbol from plugin)
                                                  build/obj/chthreads.o (symbol from plugin)
chSchRescheduleS                                  /tmp/cceRjJvB.ltrans4.ltrans.o
                                                  build/obj/chschd.o (symbol from plugin)
                                                  /tmp/cceRjJvB.ltrans8.ltrans.o
                                                  /tmp/cceRjJvB.ltrans7.ltrans.o
                                                  /tmp/cceRjJvB.ltrans3.ltrans.o
                                                  /tmp/cceRjJvB.ltrans2.ltrans.o
                                                  /tmp/cceRjJvB.ltrans1.ltrans.o
                                                  /tmp/cceRjJvB.ltrans0.ltrans.o
                                                  build/obj/main.o (symbol from plugin)
                                                  build/obj/chmempools.o (symbol from plugin)
                                                  build/obj/chmboxes.o (symbol from plugin)
                                                  build/obj/chevents.o (symbol from plugin)
                                                  build/obj/chcond.o (symbol from plugin)
                                                  build/obj/chmtx.o (symbol from plugin)
                                                  build/obj/chsem.o (symbol from plugin)
                                                  build/obj/chthreads.o (symbol from plugin)
                                                  build/obj/chsys.o (symbol from plugin)
                                                  build/obj/hal_usb.o (symbol from plugin)
                                                  build/obj/hal_spi.o (symbol from plugin)
                                                  build/obj/hal_serial_usb.o (symbol from plugin)
                                                  build/obj/hal_serial.o (symbol from plugin)
chSchWakeupS                                      /tmp/cceRjJvB.ltrans4.ltrans.o
                                                  build/obj/chschd.o (symbol from plugin)
                                                  /tmp/cceRjJvB.ltrans3.ltrans.o
                                                  /tmp/cceRjJvB.ltrans2.ltrans.o
                                                  build/obj/chdynamic.o (symbol from plugin)
                                                  build/obj/chmsg.o (symbol from plugin)
                                                  build/obj/chcond.o (symbol from plugin)
                                                  build/obj/chsem.o (symbol from plugin)
                                                  build/obj/chthreads.o (symbol from plugin)
chSemAddCounterI                                  build/obj/chsem.o (symbol from plugin)
chSemObjectInit                                   /tmp/cceRjJvB.ltrans3.ltrans.o
                                                  build/obj/chsem.o (symbol from plugin)
                                                  /tmp/cceRjJvB.ltrans1.ltrans.o
                                                  /tmp/cceRjJvB.ltrans0.ltrans.o
                                                  build/obj/main.o (symbol from plugin)
                                                  build/obj/chfactory.o (symbol from plugin)
                                                  build/obj/chmempools.o (symbol from plugin)
chSemReset                                        build/obj/chsem.o (symbol from plugin)
chSemResetI                                       build/obj/chsem.o (symbol from plugin)
chSemSignal                                       build/obj/chsem.o (symbol from plugin)
chSemSignalI                                      /tmp/cceRjJvB.ltrans3.ltrans.o
                                                  build/obj/chsem.o (symbol from plugin)
                                                  /tmp/cceRjJvB.ltrans1.ltrans.o
                                                  /tmp/cceRjJvB.ltrans0.ltrans.o
                                                  build/obj/main.o (symbol from plugin)
                                                  build/obj/chmempools.o (symbol from plugin)
chSemSignalWait                                   build/obj/chsem.o (symbol from plugin)
chSemWait                                         /tmp/cceRjJvB.ltrans3.ltrans.o
                                                  build/obj/chsem.o (symbol from plugin)
                                                  /tmp/cceRjJvB.ltrans0.ltrans.o
                                                  build/obj/main.o (symbol from plugin)
chSemWaitS                                        build/obj/chsem.o (symbol from plugin)
chSemWaitTimeout                                  build/obj/chsem.o (symbol from plugin)
chSemWaitTimeoutS                                 /tmp/cceRjJvB.ltrans3.ltrans.o
                                                  build/obj/chsem.o (symbol from plugin)
                                                  /tmp/cceRjJvB.ltrans1.ltrans.o
                                                  build/obj/chmempools.o (symbol from plugin)
chSysGetStatusAndLockX                            build/obj/chsys.o (symbol from plugin)
chSysHalt                                         /tmp/cceRjJvB.ltrans4.ltrans.o
                                                  build/obj/chsys.o (symbol from plugin)
                                                  /tmp/cceRjJvB.ltrans5.ltrans.o
                                                  build/obj/hal_uart_lld.o (symbol from plugin)
                                                  build/obj/hal_spi_lld.o (symbol from plugin)
chSysInit                                         /tmp/cceRjJvB.ltrans4.ltrans.o
                                                  build/obj/chsys.o (symbol from plugin)
                                                  /tmp/cceRjJvB.ltrans0.ltrans.o
                                                  build/obj/main.o (symbol from plugin)
chSysIntegrityCheckI                              build/obj/chsys.o (symbol from plugin)
chSysIsCounterWithinX                             build/obj/chsys.o (symbol from plugin)
chSysLock.lto_priv.52                             /tmp/cceRjJvB.ltrans3.ltrans.o
                                                  /tmp/cceRjJvB.ltrans2.ltrans.o
chSysLock.lto_priv.89                             /tmp/cceRjJvB.ltrans4.ltrans.o
                                                  /tmp/cceRjJvB.ltrans3.ltrans.o
chSysPolledDelayX                                 /tmp/cceRjJvB.ltrans4.ltrans.o
                                                  build/obj/chsys.o (symbol from plugin)
                                                  /tmp/cceRjJvB.ltrans6.ltrans.o
                                                  build/obj/hal_usb_lld.o (symbol from plugin)
chSysRestoreStatusX                               build/obj/chsys.o (symbol from plugin)
chSysTimerHandlerI                                /tmp/cceRjJvB.ltrans4.ltrans.o
                                                  build/obj/chsys.o (symbol from plugin)
                                                  /tmp/cceRjJvB.ltrans5.ltrans.o
                                                  build/obj/hal_st_lld.o (symbol from plugin)
chSysUnlock.lto_priv.46                           /tmp/cceRjJvB.ltrans3.ltrans.o
                                                  /tmp/cceRjJvB.ltrans2.ltrans.o
chSysUnlock.lto_priv.86                           /tmp/cceRjJvB.ltrans4.ltrans.o
                                                  /tmp/cceRjJvB.ltrans3.ltrans.o
chTMChainMeasurementToX                           build/obj/chtm.o (symbol from plugin)
chTMObjectInit                                    build/obj/chtm.o (symbol from plugin)
chTMStartMeasurementX                             build/obj/chtm.o (symbol from plugin)
chTMStopMeasurementX                              build/obj/chtm.o (symbol from plugin)
chThdAddRef                                       build/obj/chthreads.o (symbol from plugin)
chThdCreate                                       /tmp/cceRjJvB.ltrans3.ltrans.o
                                                  build/obj/chthreads.o (symbol from plugin)
                                                  /tmp/cceRjJvB.ltrans4.ltrans.o
                                                  build/obj/chsys.o (symbol from plugin)
chThdCreateFromHeap                               build/obj/chdynamic.o (symbol from plugin)
chThdCreateFromMemoryPool                         build/obj/chdynamic.o (symbol from plugin)
chThdCreateI                                      build/obj/chthreads.o (symbol from plugin)
chThdCreateStatic                                 /tmp/cceRjJvB.ltrans3.ltrans.o
                                                  build/obj/chthreads.o (symbol from plugin)
                                                  /tmp/cceRjJvB.ltrans0.ltrans.o
                                                  build/obj/main.o (symbol from plugin)
chThdCreateSuspended                              build/obj/chthreads.o (symbol from plugin)
chThdCreateSuspendedI                             /tmp/cceRjJvB.ltrans3.ltrans.o
                                                  build/obj/chthreads.o (symbol from plugin)
                                                  /tmp/cceRjJvB.ltrans2.ltrans.o
                                                  build/obj/chdynamic.o (symbol from plugin)
chThdDequeueAllI                                  /tmp/cceRjJvB.ltrans3.ltrans.o
                                                  build/obj/chthreads.o (symbol from plugin)
                                                  /tmp/cceRjJvB.ltrans9.ltrans.o
                                                  /tmp/cceRjJvB.ltrans8.ltrans.o
                                                  /tmp/cceRjJvB.ltrans2.ltrans.o
                                                  build/obj/chmboxes.o (symbol from plugin)
                                                  build/obj/hal_serial_usb.o (symbol from plugin)
                                                  build/obj/hal_queues.o (symbol from plugin)
                                                  build/obj/hal_buffers.o (symbol from plugin)
chThdDequeueNextI                                 /tmp/cceRjJvB.ltrans3.ltrans.o
                                                  build/obj/chthreads.o (symbol from plugin)
                                                  /tmp/cceRjJvB.ltrans9.ltrans.o
                                                  /tmp/cceRjJvB.ltrans2.ltrans.o
                                                  /tmp/cceRjJvB.ltrans1.ltrans.o
                                                  build/obj/chmboxes.o (symbol from plugin)
                                                  build/obj/hal_queues.o (symbol from plugin)
                                                  build/obj/hal_buffers.o (symbol from plugin)
chThdDoDequeueNextI.lto_priv.98                   /tmp/cceRjJvB.ltrans4.ltrans.o
                                                  /tmp/cceRjJvB.ltrans3.ltrans.o
chThdEnqueueTimeoutS                              /tmp/cceRjJvB.ltrans3.ltrans.o
                                                  build/obj/chthreads.o (symbol from plugin)
                                                  /tmp/cceRjJvB.ltrans9.ltrans.o
                                                  /tmp/cceRjJvB.ltrans2.ltrans.o
                                                  /tmp/cceRjJvB.ltrans1.ltrans.o
                                                  build/obj/chmboxes.o (symbol from plugin)
                                                  build/obj/hal_queues.o (symbol from plugin)
                                                  build/obj/hal_buffers.o (symbol from plugin)
chThdExit                                         /tmp/cceRjJvB.ltrans3.ltrans.o
                                                  build/obj/chthreads.o (symbol from plugin)
                                                  build/obj/chcoreasm_v7m.o
chThdExitS                                        build/obj/chthreads.o (symbol from plugin)
chThdGetSelfX.lto_priv.99                         /tmp/cceRjJvB.ltrans4.ltrans.o
                                                  /tmp/cceRjJvB.ltrans3.ltrans.o
chThdGetWorkingAreaX.lto_priv.96                  /tmp/cceRjJvB.ltrans4.ltrans.o
                                                  /tmp/cceRjJvB.ltrans3.ltrans.o
chThdRelease                                      build/obj/chthreads.o (symbol from plugin)
                                                  build/obj/chregistry.o (symbol from plugin)
chThdResume                                       build/obj/chthreads.o (symbol from plugin)
chThdResumeI                                      /tmp/cceRjJvB.ltrans3.ltrans.o
                                                  build/obj/chthreads.o (symbol from plugin)
                                                  /tmp/cceRjJvB.ltrans8.ltrans.o
                                                  /tmp/cceRjJvB.ltrans5.ltrans.o
                                                  build/obj/hal_spi_lld.o (symbol from plugin)
                                                  build/obj/hal_spi.o (symbol from plugin)
chThdResumeS                                      build/obj/chthreads.o (symbol from plugin)
chThdSetPriority                                  build/obj/chthreads.o (symbol from plugin)
chThdSleep                                        /tmp/cceRjJvB.ltrans3.ltrans.o
                                                  build/obj/chthreads.o (symbol from plugin)
                                                  /tmp/cceRjJvB.ltrans7.ltrans.o
                                                  /tmp/cceRjJvB.ltrans1.ltrans.o
                                                  /tmp/cceRjJvB.ltrans0.ltrans.o
                                                  build/obj/main.o (symbol from plugin)
                                                  build/obj/l3gd20.o (symbol from plugin)
                                                  build/obj/hal_usb.o (symbol from plugin)
chThdSleepS.lto_priv.101                          /tmp/cceRjJvB.ltrans4.ltrans.o
                                                  /tmp/cceRjJvB.ltrans3.ltrans.o
chThdSleepUntil                                   build/obj/chthreads.o (symbol from plugin)
chThdSleepUntilWindowed                           build/obj/chthreads.o (symbol from plugin)
chThdStart                                        build/obj/chthreads.o (symbol from plugin)
chThdSuspendS                                     build/obj/chthreads.o (symbol from plugin)
chThdSuspendTimeoutS                              /tmp/cceRjJvB.ltrans3.ltrans.o
                                                  build/obj/chthreads.o (symbol from plugin)
                                                  /tmp/cceRjJvB.ltrans8.ltrans.o
                                                  build/obj/hal_spi.o (symbol from plugin)
chThdTerminate                                    build/obj/chthreads.o (symbol from plugin)
chThdWait                                         build/obj/chthreads.o (symbol from plugin)
chThdYield                                        build/obj/chthreads.o (symbol from plugin)
chTimeDiffX.lto_priv.102                          /tmp/cceRjJvB.ltrans4.ltrans.o
                                                  /tmp/cceRjJvB.ltrans3.ltrans.o
chTimeIsInRangeX.lto_priv.103                     /tmp/cceRjJvB.ltrans4.ltrans.o
                                                  /tmp/cceRjJvB.ltrans3.ltrans.o
chVTDoResetI                                      build/obj/chvt.o (symbol from plugin)
                                                  build/obj/chschd.o (symbol from plugin)
chVTDoSetI                                        build/obj/chvt.o (symbol from plugin)
                                                  build/obj/chschd.o (symbol from plugin)
chVTGetSystemTimeX.lto_priv.104                   /tmp/cceRjJvB.ltrans4.ltrans.o
                                                  /tmp/cceRjJvB.ltrans3.ltrans.o
ch_debug                                          /tmp/cceRjJvB.ltrans0.ltrans.o
                                                  build/obj/chregistry.o (symbol from plugin)
                                                  /tmp/cceRjJvB.ltrans4.ltrans.o
                                                  build/obj/chsys.o (symbol from plugin)
ch_factory                                        /tmp/cceRjJvB.ltrans0.ltrans.o
                                                  build/obj/chfactory.o (symbol from plugin)
                                                  /tmp/cceRjJvB.ltrans1.ltrans.o
ch_idle_thread_wa                                 /tmp/cceRjJvB.ltrans0.ltrans.o
                                                  build/obj/chsys.o (symbol from plugin)
ch_memcore                                        /tmp/cceRjJvB.ltrans0.ltrans.o
                                                  build/obj/chmemcore.o (symbol from plugin)
                                                  /tmp/cceRjJvB.ltrans1.ltrans.o
chprintf                                          build/obj/chprintf.o (symbol from plugin)
                                                  build/obj/main.o (symbol from plugin)
chsnprintf                                        build/obj/chprintf.o (symbol from plugin)
chvprintf                                         build/obj/chprintf.o (symbol from plugin)
construct_response                                build/obj/main.o (symbol from plugin)
default_config.lto_priv.151                       /tmp/cceRjJvB.ltrans0.ltrans.o
                                                  /tmp/cceRjJvB.ltrans5.ltrans.o
default_heap.lto_priv.44                          /tmp/cceRjJvB.ltrans0.ltrans.o
                                                  /tmp/cceRjJvB.ltrans1.ltrans.o
dmaInit                                           /tmp/cceRjJvB.ltrans6.ltrans.o
                                                  build/obj/stm32_dma.o (symbol from plugin)
                                                  /tmp/cceRjJvB.ltrans7.ltrans.o
                                                  build/obj/hal_lld.o (symbol from plugin)
dmaStreamAllocate                                 /tmp/cceRjJvB.ltrans6.ltrans.o
                                                  build/obj/stm32_dma.o (symbol from plugin)
                                                  /tmp/cceRjJvB.ltrans5.ltrans.o
                                                  /tmp/cceRjJvB.ltrans4.ltrans.o
                                                  build/obj/hal_uart_lld.o (symbol from plugin)
                                                  build/obj/hal_spi_lld.o (symbol from plugin)
dmaStreamRelease                                  /tmp/cceRjJvB.ltrans6.ltrans.o
                                                  build/obj/stm32_dma.o (symbol from plugin)
                                                  /tmp/cceRjJvB.ltrans5.ltrans.o
                                                  /tmp/cceRjJvB.ltrans4.ltrans.o
                                                  build/obj/hal_uart_lld.o (symbol from plugin)
                                                  build/obj/hal_spi_lld.o (symbol from plugin)
dma_isr_redir.lto_priv.181                        /tmp/cceRjJvB.ltrans0.ltrans.o
                                                  /tmp/cceRjJvB.ltrans7.ltrans.o
                                                  /tmp/cceRjJvB.ltrans6.ltrans.o
dma_streams_mask.lto_priv.180                     /tmp/cceRjJvB.ltrans0.ltrans.o
                                                  /tmp/cceRjJvB.ltrans6.ltrans.o
dummyrx.lto_priv.177                              /tmp/cceRjJvB.ltrans0.ltrans.o
                                                  /tmp/cceRjJvB.ltrans5.ltrans.o
dummytx.lto_priv.176                              /tmp/cceRjJvB.ltrans0.ltrans.o
                                                  /tmp/cceRjJvB.ltrans5.ltrans.o
ep0_state.lto_priv.182                            /tmp/cceRjJvB.ltrans0.ltrans.o
ep0config.lto_priv.178                            /tmp/cceRjJvB.ltrans0.ltrans.o
                                                  /tmp/cceRjJvB.ltrans6.ltrans.o
ep0setup_buffer.lto_priv.183                      /tmp/cceRjJvB.ltrans0.ltrans.o
fsparams.lto_priv.179                             /tmp/cceRjJvB.ltrans0.ltrans.o
                                                  /tmp/cceRjJvB.ltrans6.ltrans.o
gpio_default_config.lto_priv.142                  /tmp/cceRjJvB.ltrans0.ltrans.o
                                                  /tmp/cceRjJvB.ltrans4.ltrans.o
gyro_get_axes_number.lto_priv.14                  /tmp/cceRjJvB.ltrans1.ltrans.o
                                                  /tmp/cceRjJvB.ltrans0.ltrans.o
gyro_read_raw.lto_priv.15                         /tmp/cceRjJvB.ltrans1.ltrans.o
                                                  /tmp/cceRjJvB.ltrans0.ltrans.o
halInit                                           /tmp/cceRjJvB.ltrans9.ltrans.o
                                                  build/obj/hal.o (symbol from plugin)
                                                  /tmp/cceRjJvB.ltrans0.ltrans.o
                                                  build/obj/main.o (symbol from plugin)
hal_lld_init                                      /tmp/cceRjJvB.ltrans7.ltrans.o
                                                  build/obj/hal_lld.o (symbol from plugin)
                                                  /tmp/cceRjJvB.ltrans9.ltrans.o
                                                  build/obj/hal.o (symbol from plugin)
halted_status.lto_priv.185                        /tmp/cceRjJvB.ltrans0.ltrans.o
                                                  /tmp/cceRjJvB.ltrans7.ltrans.o
handle_rx_packet                                  build/obj/main.o (symbol from plugin)
ibqGetEmptyBufferI                                /tmp/cceRjJvB.ltrans9.ltrans.o
                                                  build/obj/hal_buffers.o (symbol from plugin)
                                                  /tmp/cceRjJvB.ltrans8.ltrans.o
                                                  build/obj/hal_serial_usb.o (symbol from plugin)
ibqGetFullBufferTimeout                           build/obj/hal_buffers.o (symbol from plugin)
ibqGetFullBufferTimeoutS                          build/obj/hal_buffers.o (symbol from plugin)
ibqGetTimeout                                     /tmp/cceRjJvB.ltrans9.ltrans.o
                                                  build/obj/hal_buffers.o (symbol from plugin)
                                                  /tmp/cceRjJvB.ltrans8.ltrans.o
                                                  build/obj/hal_serial_usb.o (symbol from plugin)
ibqObjectInit                                     /tmp/cceRjJvB.ltrans9.ltrans.o
                                                  build/obj/hal_buffers.o (symbol from plugin)
                                                  /tmp/cceRjJvB.ltrans8.ltrans.o
                                                  build/obj/hal_serial_usb.o (symbol from plugin)
ibqPostFullBufferI                                /tmp/cceRjJvB.ltrans9.ltrans.o
                                                  build/obj/hal_buffers.o (symbol from plugin)
                                                  /tmp/cceRjJvB.ltrans8.ltrans.o
                                                  build/obj/hal_serial_usb.o (symbol from plugin)
ibqReadTimeout                                    /tmp/cceRjJvB.ltrans9.ltrans.o
                                                  build/obj/hal_buffers.o (symbol from plugin)
                                                  /tmp/cceRjJvB.ltrans8.ltrans.o
                                                  build/obj/hal_serial_usb.o (symbol from plugin)
ibqReleaseEmptyBuffer                             build/obj/hal_buffers.o (symbol from plugin)
ibqReleaseEmptyBufferS                            build/obj/hal_buffers.o (symbol from plugin)
ibqResetI                                         /tmp/cceRjJvB.ltrans9.ltrans.o
                                                  build/obj/hal_buffers.o (symbol from plugin)
                                                  /tmp/cceRjJvB.ltrans8.ltrans.o
                                                  build/obj/hal_serial_usb.o (symbol from plugin)
idle_descriptor.7876.lto_priv.141                 /tmp/cceRjJvB.ltrans0.ltrans.o
                                                  /tmp/cceRjJvB.ltrans4.ltrans.o
iqGetI                                            build/obj/hal_queues.o (symbol from plugin)
iqGetTimeout                                      build/obj/hal_queues.o (symbol from plugin)
                                                  build/obj/hal_serial.o (symbol from plugin)
iqObjectInit                                      /tmp/cceRjJvB.ltrans9.ltrans.o
                                                  build/obj/hal_queues.o (symbol from plugin)
                                                  /tmp/cceRjJvB.ltrans8.ltrans.o
                                                  build/obj/hal_serial.o (symbol from plugin)
iqPutI                                            /tmp/cceRjJvB.ltrans9.ltrans.o
                                                  build/obj/hal_queues.o (symbol from plugin)
                                                  /tmp/cceRjJvB.ltrans8.ltrans.o
                                                  build/obj/hal_serial.o (symbol from plugin)
iqReadI                                           build/obj/hal_queues.o (symbol from plugin)
iqReadTimeout                                     build/obj/hal_queues.o (symbol from plugin)
                                                  build/obj/hal_serial.o (symbol from plugin)
iqResetI                                          /tmp/cceRjJvB.ltrans9.ltrans.o
                                                  build/obj/hal_queues.o (symbol from plugin)
                                                  /tmp/cceRjJvB.ltrans8.ltrans.o
                                                  build/obj/hal_serial.o (symbol from plugin)
iq_read.lto_priv.231                              /tmp/cceRjJvB.ltrans9.ltrans.o
                                                  /tmp/cceRjJvB.ltrans8.ltrans.o
irqDeinit                                         build/obj/stm32_isr.o (symbol from plugin)
irqInit                                           build/obj/stm32_isr.o (symbol from plugin)
                                                  build/obj/hal_lld.o (symbol from plugin)
is_frame_valid                                    build/obj/main.o (symbol from plugin)
l3gd20ObjectInit                                  build/obj/l3gd20.o (symbol from plugin)
                                                  build/obj/main.o (symbol from plugin)
l3gd20SPIReadRegister.lto_priv.33                 /tmp/cceRjJvB.ltrans1.ltrans.o
                                                  /tmp/cceRjJvB.ltrans0.ltrans.o
l3gd20SPIWriteRegister.lto_priv.31                /tmp/cceRjJvB.ltrans1.ltrans.o
                                                  /tmp/cceRjJvB.ltrans0.ltrans.o
l3gd20Start                                       build/obj/l3gd20.o (symbol from plugin)
                                                  build/obj/main.o (symbol from plugin)
l3gd20Stop                                        build/obj/l3gd20.o (symbol from plugin)
linecoding.lto_priv.218                           /tmp/cceRjJvB.ltrans0.ltrans.o
                                                  /tmp/cceRjJvB.ltrans8.ltrans.o
list_init.lto_priv.108                            /tmp/cceRjJvB.ltrans4.ltrans.o
                                                  /tmp/cceRjJvB.ltrans3.ltrans.o
list_insert.lto_priv.105                          /tmp/cceRjJvB.ltrans4.ltrans.o
                                                  /tmp/cceRjJvB.ltrans3.ltrans.o
list_notempty.lto_priv.106                        /tmp/cceRjJvB.ltrans4.ltrans.o
                                                  /tmp/cceRjJvB.ltrans3.ltrans.o
list_remove.lto_priv.107                          /tmp/cceRjJvB.ltrans4.ltrans.o
                                                  /tmp/cceRjJvB.ltrans3.ltrans.o
main                                              /tmp/cceRjJvB.ltrans0.ltrans.o
                                                  build/obj/main.o (symbol from plugin)
                                                  build/obj/crt0_v7m.o
memcpy                                            /opt/Atollic_TrueSTUDIO_for_STM32_x86_64_9.1.0/ARMTools/bin/../lib/gcc/arm-atollic-eabi/6.3.1/../../../../arm-atollic-eabi/lib/armv7e-m/fpu/libc.a(lib_a-memcpy-stub.o)
                                                  /tmp/cceRjJvB.ltrans9.ltrans.o
                                                  /tmp/cceRjJvB.ltrans6.ltrans.o
                                                  /tmp/cceRjJvB.ltrans0.ltrans.o
memset                                            /opt/Atollic_TrueSTUDIO_for_STM32_x86_64_9.1.0/ARMTools/bin/../lib/gcc/arm-atollic-eabi/6.3.1/../../../../arm-atollic-eabi/lib/armv7e-m/fpu/libc.a(lib_a-memset.o)
                                                  /tmp/cceRjJvB.ltrans7.ltrans.o
                                                  /tmp/cceRjJvB.ltrans1.ltrans.o
modbus_driver_thread                              build/obj/main.o (symbol from plugin)
modbus_registers                                  build/obj/main.o (symbol from plugin)
msObjectInit                                      build/obj/memstreams.o (symbol from plugin)
                                                  build/obj/chprintf.o (symbol from plugin)
nullObjectInit                                    build/obj/nullstreams.o (symbol from plugin)
nvicClearPending                                  build/obj/nvic.o (symbol from plugin)
nvicDisableVector                                 /tmp/cceRjJvB.ltrans7.ltrans.o
                                                  build/obj/nvic.o (symbol from plugin)
                                                  /tmp/cceRjJvB.ltrans6.ltrans.o
                                                  /tmp/cceRjJvB.ltrans5.ltrans.o
                                                  /tmp/cceRjJvB.ltrans4.ltrans.o
                                                  build/obj/hal_uart_lld.o (symbol from plugin)
                                                  build/obj/hal_serial_lld.o (symbol from plugin)
                                                  build/obj/hal_usb_lld.o (symbol from plugin)
                                                  build/obj/stm32_dma.o (symbol from plugin)
                                                  build/obj/stm32_isr.o (symbol from plugin)
nvicEnableVector                                  /tmp/cceRjJvB.ltrans7.ltrans.o
                                                  build/obj/nvic.o (symbol from plugin)
                                                  /tmp/cceRjJvB.ltrans6.ltrans.o
                                                  /tmp/cceRjJvB.ltrans5.ltrans.o
                                                  /tmp/cceRjJvB.ltrans4.ltrans.o
                                                  build/obj/hal_uart_lld.o (symbol from plugin)
                                                  build/obj/hal_serial_lld.o (symbol from plugin)
                                                  build/obj/hal_st_lld.o (symbol from plugin)
                                                  build/obj/hal_usb_lld.o (symbol from plugin)
                                                  build/obj/stm32_dma.o (symbol from plugin)
                                                  build/obj/stm32_isr.o (symbol from plugin)
nvicSetSystemHandlerPriority                      build/obj/nvic.o (symbol from plugin)
obqFlush                                          build/obj/hal_buffers.o (symbol from plugin)
obqGetEmptyBufferTimeout                          build/obj/hal_buffers.o (symbol from plugin)
obqGetEmptyBufferTimeoutS                         build/obj/hal_buffers.o (symbol from plugin)
obqGetFullBufferI                                 /tmp/cceRjJvB.ltrans9.ltrans.o
                                                  build/obj/hal_buffers.o (symbol from plugin)
                                                  /tmp/cceRjJvB.ltrans8.ltrans.o
                                                  build/obj/hal_serial_usb.o (symbol from plugin)
obqObjectInit                                     /tmp/cceRjJvB.ltrans9.ltrans.o
                                                  build/obj/hal_buffers.o (symbol from plugin)
                                                  /tmp/cceRjJvB.ltrans8.ltrans.o
                                                  build/obj/hal_serial_usb.o (symbol from plugin)
obqPostFullBuffer                                 build/obj/hal_buffers.o (symbol from plugin)
obqPostFullBufferS                                build/obj/hal_buffers.o (symbol from plugin)
obqPutTimeout                                     /tmp/cceRjJvB.ltrans9.ltrans.o
                                                  build/obj/hal_buffers.o (symbol from plugin)
                                                  /tmp/cceRjJvB.ltrans8.ltrans.o
                                                  build/obj/hal_serial_usb.o (symbol from plugin)
obqReleaseEmptyBufferI                            /tmp/cceRjJvB.ltrans9.ltrans.o
                                                  build/obj/hal_buffers.o (symbol from plugin)
                                                  /tmp/cceRjJvB.ltrans8.ltrans.o
                                                  build/obj/hal_serial_usb.o (symbol from plugin)
obqResetI                                         /tmp/cceRjJvB.ltrans9.ltrans.o
                                                  build/obj/hal_buffers.o (symbol from plugin)
                                                  /tmp/cceRjJvB.ltrans8.ltrans.o
                                                  build/obj/hal_serial_usb.o (symbol from plugin)
obqTryFlushI                                      /tmp/cceRjJvB.ltrans9.ltrans.o
                                                  build/obj/hal_buffers.o (symbol from plugin)
                                                  /tmp/cceRjJvB.ltrans8.ltrans.o
                                                  build/obj/hal_serial_usb.o (symbol from plugin)
obqWriteTimeout                                   /tmp/cceRjJvB.ltrans9.ltrans.o
                                                  build/obj/hal_buffers.o (symbol from plugin)
                                                  /tmp/cceRjJvB.ltrans8.ltrans.o
                                                  build/obj/hal_serial_usb.o (symbol from plugin)
oqGetI                                            /tmp/cceRjJvB.ltrans8.ltrans.o
                                                  build/obj/hal_queues.o (symbol from plugin)
                                                  /tmp/cceRjJvB.ltrans5.ltrans.o
                                                  build/obj/hal_serial_lld.o (symbol from plugin)
                                                  build/obj/hal_serial.o (symbol from plugin)
oqObjectInit                                      build/obj/hal_queues.o (symbol from plugin)
                                                  build/obj/hal_serial.o (symbol from plugin)
oqPutI                                            build/obj/hal_queues.o (symbol from plugin)
oqPutTimeout                                      build/obj/hal_queues.o (symbol from plugin)
                                                  build/obj/hal_serial.o (symbol from plugin)
oqResetI                                          build/obj/hal_queues.o (symbol from plugin)
                                                  build/obj/hal_serial.o (symbol from plugin)
oqWriteI                                          build/obj/hal_queues.o (symbol from plugin)
oqWriteTimeout                                    build/obj/hal_queues.o (symbol from plugin)
                                                  build/obj/hal_serial.o (symbol from plugin)
oq_write.lto_priv.228                             /tmp/cceRjJvB.ltrans9.ltrans.o
                                                  /tmp/cceRjJvB.ltrans8.ltrans.o
osalSysLock.lto_priv.189                          /tmp/cceRjJvB.ltrans8.ltrans.o
                                                  /tmp/cceRjJvB.ltrans7.ltrans.o
osalSysLock.lto_priv.214                          /tmp/cceRjJvB.ltrans9.ltrans.o
                                                  /tmp/cceRjJvB.ltrans8.ltrans.o
osalSysUnlock.lto_priv.187                        /tmp/cceRjJvB.ltrans8.ltrans.o
                                                  /tmp/cceRjJvB.ltrans7.ltrans.o
osalSysUnlock.lto_priv.210                        /tmp/cceRjJvB.ltrans9.ltrans.o
                                                  /tmp/cceRjJvB.ltrans8.ltrans.o
osalThreadDequeueAllI.lto_priv.223                /tmp/cceRjJvB.ltrans9.ltrans.o
                                                  /tmp/cceRjJvB.ltrans8.ltrans.o
osalThreadDequeueNextI.lto_priv.229               /tmp/cceRjJvB.ltrans9.ltrans.o
                                                  /tmp/cceRjJvB.ltrans8.ltrans.o
osalThreadEnqueueTimeoutS.lto_priv.227            /tmp/cceRjJvB.ltrans9.ltrans.o
                                                  /tmp/cceRjJvB.ltrans8.ltrans.o
osalThreadQueueObjectInit.lto_priv.230            /tmp/cceRjJvB.ltrans9.ltrans.o
                                                  /tmp/cceRjJvB.ltrans8.ltrans.o
osalThreadSleep.lto_priv.32                       /tmp/cceRjJvB.ltrans1.ltrans.o
                                                  /tmp/cceRjJvB.ltrans0.ltrans.o
palReadBus                                        build/obj/hal_pal.o (symbol from plugin)
palSetBusMode                                     build/obj/hal_pal.o (symbol from plugin)
palWriteBus                                       build/obj/hal_pal.o (symbol from plugin)
poll_uart_for_character                           build/obj/main.o (symbol from plugin)
process_request                                   build/obj/main.o (symbol from plugin)
queue_dequeue.lto_priv.77                         /tmp/cceRjJvB.ltrans3.ltrans.o
                                                  /tmp/cceRjJvB.ltrans2.ltrans.o
queue_fifo_remove.lto_priv.71                     /tmp/cceRjJvB.ltrans3.ltrans.o
                                                  /tmp/cceRjJvB.ltrans2.ltrans.o
queue_init.lto_priv.58                            /tmp/cceRjJvB.ltrans3.ltrans.o
                                                  /tmp/cceRjJvB.ltrans2.ltrans.o
queue_init.lto_priv.94                            /tmp/cceRjJvB.ltrans4.ltrans.o
                                                  /tmp/cceRjJvB.ltrans3.ltrans.o
queue_insert.lto_priv.92                          /tmp/cceRjJvB.ltrans4.ltrans.o
                                                  /tmp/cceRjJvB.ltrans3.ltrans.o
queue_notempty.lto_priv.78                        /tmp/cceRjJvB.ltrans4.ltrans.o
                                                  /tmp/cceRjJvB.ltrans3.ltrans.o
queue_prio_insert.lto_priv.74                     /tmp/cceRjJvB.ltrans3.ltrans.o
                                                  /tmp/cceRjJvB.ltrans2.ltrans.o
ram_areas.lto_priv.244                            /tmp/cceRjJvB.ltrans0.ltrans.o
                                                  /tmp/cceRjJvB.ltrans9.ltrans.o
restart_timer                                     build/obj/main.o (symbol from plugin)
sdControl                                         build/obj/hal_serial.o (symbol from plugin)
sdGetWouldBlock                                   build/obj/hal_serial.o (symbol from plugin)
sdIncomingDataI                                   /tmp/cceRjJvB.ltrans8.ltrans.o
                                                  build/obj/hal_serial.o (symbol from plugin)
                                                  /tmp/cceRjJvB.ltrans5.ltrans.o
                                                  build/obj/hal_serial_lld.o (symbol from plugin)
sdInit                                            /tmp/cceRjJvB.ltrans8.ltrans.o
                                                  build/obj/hal_serial.o (symbol from plugin)
                                                  /tmp/cceRjJvB.ltrans9.ltrans.o
                                                  build/obj/hal.o (symbol from plugin)
sdObjectInit                                      /tmp/cceRjJvB.ltrans8.ltrans.o
                                                  build/obj/hal_serial.o (symbol from plugin)
                                                  /tmp/cceRjJvB.ltrans5.ltrans.o
                                                  build/obj/hal_serial_lld.o (symbol from plugin)
sdPutWouldBlock                                   build/obj/hal_serial.o (symbol from plugin)
sdRequestDataI                                    build/obj/hal_serial.o (symbol from plugin)
sdStart                                           build/obj/hal_serial.o (symbol from plugin)
sdStop                                            build/obj/hal_serial.o (symbol from plugin)
sd_lld_init                                       /tmp/cceRjJvB.ltrans5.ltrans.o
                                                  build/obj/hal_serial_lld.o (symbol from plugin)
                                                  /tmp/cceRjJvB.ltrans8.ltrans.o
                                                  build/obj/hal_serial.o (symbol from plugin)
sd_lld_start                                      /tmp/cceRjJvB.ltrans5.ltrans.o
                                                  build/obj/hal_serial_lld.o (symbol from plugin)
                                                  /tmp/cceRjJvB.ltrans8.ltrans.o
                                                  build/obj/hal_serial.o (symbol from plugin)
sd_lld_stop                                       /tmp/cceRjJvB.ltrans5.ltrans.o
                                                  build/obj/hal_serial_lld.o (symbol from plugin)
                                                  /tmp/cceRjJvB.ltrans8.ltrans.o
                                                  build/obj/hal_serial.o (symbol from plugin)
sduConfigureHookI                                 /tmp/cceRjJvB.ltrans8.ltrans.o
                                                  build/obj/hal_serial_usb.o (symbol from plugin)
                                                  /tmp/cceRjJvB.ltrans0.ltrans.o
                                                  build/obj/usbcfg.o (symbol from plugin)
sduControl                                        build/obj/hal_serial_usb.o (symbol from plugin)
sduDataReceived                                   /tmp/cceRjJvB.ltrans8.ltrans.o
                                                  build/obj/hal_serial_usb.o (symbol from plugin)
                                                  /tmp/cceRjJvB.ltrans0.ltrans.o
                                                  build/obj/usbcfg.o (symbol from plugin)
sduDataTransmitted                                /tmp/cceRjJvB.ltrans8.ltrans.o
                                                  build/obj/hal_serial_usb.o (symbol from plugin)
                                                  /tmp/cceRjJvB.ltrans0.ltrans.o
                                                  build/obj/usbcfg.o (symbol from plugin)
sduInit                                           /tmp/cceRjJvB.ltrans8.ltrans.o
                                                  build/obj/hal_serial_usb.o (symbol from plugin)
                                                  /tmp/cceRjJvB.ltrans9.ltrans.o
                                                  build/obj/hal.o (symbol from plugin)
sduInterruptTransmitted                           /tmp/cceRjJvB.ltrans8.ltrans.o
                                                  build/obj/hal_serial_usb.o (symbol from plugin)
                                                  /tmp/cceRjJvB.ltrans0.ltrans.o
                                                  build/obj/usbcfg.o (symbol from plugin)
sduObjectInit                                     /tmp/cceRjJvB.ltrans8.ltrans.o
                                                  build/obj/hal_serial_usb.o (symbol from plugin)
                                                  /tmp/cceRjJvB.ltrans0.ltrans.o
                                                  build/obj/main.o (symbol from plugin)
sduRequestsHook                                   /tmp/cceRjJvB.ltrans8.ltrans.o
                                                  build/obj/hal_serial_usb.o (symbol from plugin)
                                                  /tmp/cceRjJvB.ltrans0.ltrans.o
                                                  build/obj/usbcfg.o (symbol from plugin)
sduSOFHookI                                       /tmp/cceRjJvB.ltrans8.ltrans.o
                                                  build/obj/hal_serial_usb.o (symbol from plugin)
                                                  /tmp/cceRjJvB.ltrans0.ltrans.o
                                                  build/obj/usbcfg.o (symbol from plugin)
sduStart                                          /tmp/cceRjJvB.ltrans8.ltrans.o
                                                  build/obj/hal_serial_usb.o (symbol from plugin)
                                                  /tmp/cceRjJvB.ltrans0.ltrans.o
                                                  build/obj/main.o (symbol from plugin)
sduStop                                           build/obj/hal_serial_usb.o (symbol from plugin)
sduSuspendHookI                                   /tmp/cceRjJvB.ltrans8.ltrans.o
                                                  build/obj/hal_serial_usb.o (symbol from plugin)
                                                  /tmp/cceRjJvB.ltrans0.ltrans.o
                                                  build/obj/usbcfg.o (symbol from plugin)
sduWakeupHookI                                    /tmp/cceRjJvB.ltrans8.ltrans.o
                                                  build/obj/hal_serial_usb.o (symbol from plugin)
                                                  /tmp/cceRjJvB.ltrans0.ltrans.o
                                                  build/obj/usbcfg.o (symbol from plugin)
send_response                                     build/obj/main.o (symbol from plugin)
serusbcfg                                         build/obj/usbcfg.o (symbol from plugin)
                                                  build/obj/main.o (symbol from plugin)
serve_usart_irq.lto_priv.148                      /tmp/cceRjJvB.ltrans5.ltrans.o
                                                  /tmp/cceRjJvB.ltrans4.ltrans.o
spiAbort                                          build/obj/hal_spi.o (symbol from plugin)
spiAbortI                                         build/obj/hal_spi.o (symbol from plugin)
spiAcquireBus                                     build/obj/hal_spi.o (symbol from plugin)
spiExchange                                       build/obj/hal_spi.o (symbol from plugin)
spiIgnore                                         build/obj/hal_spi.o (symbol from plugin)
spiInit                                           /tmp/cceRjJvB.ltrans8.ltrans.o
                                                  build/obj/hal_spi.o (symbol from plugin)
                                                  /tmp/cceRjJvB.ltrans9.ltrans.o
                                                  build/obj/hal.o (symbol from plugin)
spiObjectInit                                     /tmp/cceRjJvB.ltrans8.ltrans.o
                                                  build/obj/hal_spi.o (symbol from plugin)
                                                  /tmp/cceRjJvB.ltrans5.ltrans.o
                                                  build/obj/hal_spi_lld.o (symbol from plugin)
spiReceive                                        /tmp/cceRjJvB.ltrans8.ltrans.o
                                                  build/obj/hal_spi.o (symbol from plugin)
                                                  /tmp/cceRjJvB.ltrans1.ltrans.o
                                                  build/obj/l3gd20.o (symbol from plugin)
spiReleaseBus                                     build/obj/hal_spi.o (symbol from plugin)
spiSelect                                         /tmp/cceRjJvB.ltrans8.ltrans.o
                                                  build/obj/hal_spi.o (symbol from plugin)
                                                  /tmp/cceRjJvB.ltrans1.ltrans.o
                                                  build/obj/l3gd20.o (symbol from plugin)
spiSend                                           /tmp/cceRjJvB.ltrans8.ltrans.o
                                                  build/obj/hal_spi.o (symbol from plugin)
                                                  /tmp/cceRjJvB.ltrans1.ltrans.o
                                                  build/obj/l3gd20.o (symbol from plugin)
spiStart                                          /tmp/cceRjJvB.ltrans8.ltrans.o
                                                  build/obj/hal_spi.o (symbol from plugin)
                                                  /tmp/cceRjJvB.ltrans0.ltrans.o
                                                  build/obj/l3gd20.o (symbol from plugin)
spiStartExchange                                  build/obj/hal_spi.o (symbol from plugin)
spiStartIgnore                                    build/obj/hal_spi.o (symbol from plugin)
spiStartReceive                                   build/obj/hal_spi.o (symbol from plugin)
spiStartSend                                      build/obj/hal_spi.o (symbol from plugin)
spiStop                                           /tmp/cceRjJvB.ltrans8.ltrans.o
                                                  build/obj/hal_spi.o (symbol from plugin)
                                                  /tmp/cceRjJvB.ltrans0.ltrans.o
                                                  build/obj/l3gd20.o (symbol from plugin)
spiUnselect                                       /tmp/cceRjJvB.ltrans8.ltrans.o
                                                  build/obj/hal_spi.o (symbol from plugin)
                                                  /tmp/cceRjJvB.ltrans1.ltrans.o
                                                  build/obj/l3gd20.o (symbol from plugin)
spi_lld_abort                                     /tmp/cceRjJvB.ltrans5.ltrans.o
                                                  build/obj/hal_spi_lld.o (symbol from plugin)
                                                  /tmp/cceRjJvB.ltrans8.ltrans.o
                                                  build/obj/hal_spi.o (symbol from plugin)
spi_lld_exchange                                  /tmp/cceRjJvB.ltrans5.ltrans.o
                                                  build/obj/hal_spi_lld.o (symbol from plugin)
                                                  /tmp/cceRjJvB.ltrans8.ltrans.o
                                                  build/obj/hal_spi.o (symbol from plugin)
spi_lld_ignore                                    /tmp/cceRjJvB.ltrans5.ltrans.o
                                                  build/obj/hal_spi_lld.o (symbol from plugin)
                                                  /tmp/cceRjJvB.ltrans8.ltrans.o
                                                  build/obj/hal_spi.o (symbol from plugin)
spi_lld_init                                      /tmp/cceRjJvB.ltrans5.ltrans.o
                                                  build/obj/hal_spi_lld.o (symbol from plugin)
                                                  /tmp/cceRjJvB.ltrans8.ltrans.o
                                                  build/obj/hal_spi.o (symbol from plugin)
spi_lld_polled_exchange                           build/obj/hal_spi_lld.o (symbol from plugin)
spi_lld_receive                                   /tmp/cceRjJvB.ltrans5.ltrans.o
                                                  build/obj/hal_spi_lld.o (symbol from plugin)
                                                  /tmp/cceRjJvB.ltrans8.ltrans.o
                                                  build/obj/hal_spi.o (symbol from plugin)
spi_lld_send                                      /tmp/cceRjJvB.ltrans5.ltrans.o
                                                  build/obj/hal_spi_lld.o (symbol from plugin)
                                                  /tmp/cceRjJvB.ltrans8.ltrans.o
                                                  build/obj/hal_spi.o (symbol from plugin)
spi_lld_start                                     /tmp/cceRjJvB.ltrans5.ltrans.o
                                                  build/obj/hal_spi_lld.o (symbol from plugin)
                                                  /tmp/cceRjJvB.ltrans8.ltrans.o
                                                  build/obj/hal_spi.o (symbol from plugin)
spi_lld_stop                                      /tmp/cceRjJvB.ltrans5.ltrans.o
                                                  build/obj/hal_spi_lld.o (symbol from plugin)
                                                  /tmp/cceRjJvB.ltrans8.ltrans.o
                                                  build/obj/hal_spi.o (symbol from plugin)
stGetAlarm                                        build/obj/hal_st.o (symbol from plugin)
stInit                                            build/obj/hal_st.o (symbol from plugin)
                                                  build/obj/hal.o (symbol from plugin)
stSetAlarm                                        /tmp/cceRjJvB.ltrans9.ltrans.o
                                                  build/obj/hal_st.o (symbol from plugin)
                                                  /tmp/cceRjJvB.ltrans4.ltrans.o
                                                  build/obj/chvt.o (symbol from plugin)
                                                  build/obj/chsys.o (symbol from plugin)
stStartAlarm                                      /tmp/cceRjJvB.ltrans9.ltrans.o
                                                  build/obj/hal_st.o (symbol from plugin)
                                                  /tmp/cceRjJvB.ltrans4.ltrans.o
                                                  build/obj/chvt.o (symbol from plugin)
stStopAlarm                                       /tmp/cceRjJvB.ltrans9.ltrans.o
                                                  build/obj/hal_st.o (symbol from plugin)
                                                  /tmp/cceRjJvB.ltrans4.ltrans.o
                                                  build/obj/chvt.o (symbol from plugin)
                                                  build/obj/chsys.o (symbol from plugin)
st_lld_init                                       /tmp/cceRjJvB.ltrans5.ltrans.o
                                                  build/obj/hal_st_lld.o (symbol from plugin)
                                                  /tmp/cceRjJvB.ltrans9.ltrans.o
                                                  build/obj/hal_st.o (symbol from plugin)
start_time                                        build/obj/main.o (symbol from plugin)
stm32_clock_init                                  /tmp/cceRjJvB.ltrans7.ltrans.o
                                                  build/obj/hal_lld.o (symbol from plugin)
                                                  /tmp/cceRjJvB.ltrans4.ltrans.o
                                                  build/obj/board.o (symbol from plugin)
stop_timer                                        build/obj/main.o (symbol from plugin)
strcmp                                            /opt/Atollic_TrueSTUDIO_for_STM32_x86_64_9.1.0/ARMTools/bin/../lib/gcc/arm-atollic-eabi/6.3.1/../../../../arm-atollic-eabi/lib/armv7e-m/fpu/libc.a(lib_a-strcmp.o)
                                                  /tmp/cceRjJvB.ltrans3.ltrans.o
strncmp                                           /opt/Atollic_TrueSTUDIO_for_STM32_x86_64_9.1.0/ARMTools/bin/../lib/gcc/arm-atollic-eabi/6.3.1/../../../../arm-atollic-eabi/lib/armv7e-m/fpu/libc.a(lib_a-strncmp.o)
                                                  /tmp/cceRjJvB.ltrans1.ltrans.o
strncpy                                           /opt/Atollic_TrueSTUDIO_for_STM32_x86_64_9.1.0/ARMTools/bin/../lib/gcc/arm-atollic-eabi/6.3.1/../../../../arm-atollic-eabi/lib/armv7e-m/fpu/libc.a(lib_a-strncpy.o)
                                                  /tmp/cceRjJvB.ltrans1.ltrans.o
timeout                                           build/obj/main.o (symbol from plugin)
timer_expired                                     build/obj/main.o (symbol from plugin)
uartInit                                          /tmp/cceRjJvB.ltrans7.ltrans.o
                                                  build/obj/hal_uart.o (symbol from plugin)
                                                  /tmp/cceRjJvB.ltrans9.ltrans.o
                                                  build/obj/hal.o (symbol from plugin)
uartObjectInit                                    /tmp/cceRjJvB.ltrans7.ltrans.o
                                                  build/obj/hal_uart.o (symbol from plugin)
                                                  /tmp/cceRjJvB.ltrans4.ltrans.o
                                                  build/obj/hal_uart_lld.o (symbol from plugin)
uartStart                                         /tmp/cceRjJvB.ltrans7.ltrans.o
                                                  build/obj/hal_uart.o (symbol from plugin)
                                                  /tmp/cceRjJvB.ltrans0.ltrans.o
                                                  build/obj/main.o (symbol from plugin)
uartStartReceive                                  build/obj/hal_uart.o (symbol from plugin)
uartStartReceiveI                                 build/obj/hal_uart.o (symbol from plugin)
uartStartSend                                     /tmp/cceRjJvB.ltrans7.ltrans.o
                                                  build/obj/hal_uart.o (symbol from plugin)
                                                  /tmp/cceRjJvB.ltrans0.ltrans.o
                                                  build/obj/main.o (symbol from plugin)
uartStartSendI                                    build/obj/hal_uart.o (symbol from plugin)
uartStop                                          build/obj/hal_uart.o (symbol from plugin)
uartStopReceive                                   build/obj/hal_uart.o (symbol from plugin)
uartStopReceiveI                                  build/obj/hal_uart.o (symbol from plugin)
uartStopSend                                      build/obj/hal_uart.o (symbol from plugin)
uartStopSendI                                     build/obj/hal_uart.o (symbol from plugin)
uart_enter_rx_idle_loop.lto_priv.145              /tmp/cceRjJvB.ltrans5.ltrans.o
                                                  /tmp/cceRjJvB.ltrans4.ltrans.o
uart_lld_init                                     /tmp/cceRjJvB.ltrans4.ltrans.o
                                                  build/obj/hal_uart_lld.o (symbol from plugin)
                                                  /tmp/cceRjJvB.ltrans7.ltrans.o
                                                  build/obj/hal_uart.o (symbol from plugin)
uart_lld_serve_rx_end_irq.lto_priv.143            /tmp/cceRjJvB.ltrans5.ltrans.o
                                                  /tmp/cceRjJvB.ltrans4.ltrans.o
uart_lld_serve_tx_end_irq.lto_priv.144            /tmp/cceRjJvB.ltrans5.ltrans.o
                                                  /tmp/cceRjJvB.ltrans4.ltrans.o
uart_lld_start                                    /tmp/cceRjJvB.ltrans4.ltrans.o
                                                  build/obj/hal_uart_lld.o (symbol from plugin)
                                                  /tmp/cceRjJvB.ltrans7.ltrans.o
                                                  build/obj/hal_uart.o (symbol from plugin)
uart_lld_start_receive                            /tmp/cceRjJvB.ltrans4.ltrans.o
                                                  build/obj/hal_uart_lld.o (symbol from plugin)
                                                  /tmp/cceRjJvB.ltrans7.ltrans.o
                                                  build/obj/hal_uart.o (symbol from plugin)
uart_lld_start_send                               /tmp/cceRjJvB.ltrans4.ltrans.o
                                                  build/obj/hal_uart_lld.o (symbol from plugin)
                                                  /tmp/cceRjJvB.ltrans7.ltrans.o
                                                  build/obj/hal_uart.o (symbol from plugin)
uart_lld_stop                                     /tmp/cceRjJvB.ltrans4.ltrans.o
                                                  build/obj/hal_uart_lld.o (symbol from plugin)
                                                  /tmp/cceRjJvB.ltrans7.ltrans.o
                                                  build/obj/hal_uart.o (symbol from plugin)
uart_lld_stop_receive                             /tmp/cceRjJvB.ltrans4.ltrans.o
                                                  build/obj/hal_uart_lld.o (symbol from plugin)
                                                  /tmp/cceRjJvB.ltrans7.ltrans.o
                                                  build/obj/hal_uart.o (symbol from plugin)
uart_lld_stop_send                                /tmp/cceRjJvB.ltrans4.ltrans.o
                                                  build/obj/hal_uart_lld.o (symbol from plugin)
                                                  /tmp/cceRjJvB.ltrans7.ltrans.o
                                                  build/obj/hal_uart.o (symbol from plugin)
usMBCRC16                                         build/obj/mbcrc.o (symbol from plugin)
                                                  build/obj/main.o (symbol from plugin)
usart_start.lto_priv.147                          /tmp/cceRjJvB.ltrans5.ltrans.o
                                                  /tmp/cceRjJvB.ltrans4.ltrans.o
usart_stop.lto_priv.146                           /tmp/cceRjJvB.ltrans5.ltrans.o
                                                  /tmp/cceRjJvB.ltrans4.ltrans.o
usbDisableEndpointsI                              build/obj/hal_usb.o (symbol from plugin)
usbInit                                           /tmp/cceRjJvB.ltrans7.ltrans.o
                                                  build/obj/hal_usb.o (symbol from plugin)
                                                  /tmp/cceRjJvB.ltrans9.ltrans.o
                                                  build/obj/hal.o (symbol from plugin)
usbInitEndpointI                                  /tmp/cceRjJvB.ltrans7.ltrans.o
                                                  build/obj/hal_usb.o (symbol from plugin)
                                                  /tmp/cceRjJvB.ltrans0.ltrans.o
                                                  build/obj/usbcfg.o (symbol from plugin)
usbObjectInit                                     /tmp/cceRjJvB.ltrans7.ltrans.o
                                                  build/obj/hal_usb.o (symbol from plugin)
                                                  /tmp/cceRjJvB.ltrans6.ltrans.o
                                                  build/obj/hal_usb_lld.o (symbol from plugin)
usbStallReceiveI                                  build/obj/hal_usb.o (symbol from plugin)
usbStallTransmitI                                 build/obj/hal_usb.o (symbol from plugin)
usbStart                                          /tmp/cceRjJvB.ltrans7.ltrans.o
                                                  build/obj/hal_usb.o (symbol from plugin)
                                                  /tmp/cceRjJvB.ltrans0.ltrans.o
                                                  build/obj/main.o (symbol from plugin)
usbStartReceiveI                                  /tmp/cceRjJvB.ltrans7.ltrans.o
                                                  build/obj/hal_usb.o (symbol from plugin)
                                                  /tmp/cceRjJvB.ltrans8.ltrans.o
                                                  build/obj/hal_serial_usb.o (symbol from plugin)
usbStartTransmitI                                 /tmp/cceRjJvB.ltrans7.ltrans.o
                                                  build/obj/hal_usb.o (symbol from plugin)
                                                  /tmp/cceRjJvB.ltrans8.ltrans.o
                                                  build/obj/hal_serial_usb.o (symbol from plugin)
usbStop                                           build/obj/hal_usb.o (symbol from plugin)
usbWakeupHost                                     build/obj/hal_usb.o (symbol from plugin)
usb_lld_clear_in                                  /tmp/cceRjJvB.ltrans5.ltrans.o
                                                  build/obj/hal_usb_lld.o (symbol from plugin)
                                                  /tmp/cceRjJvB.ltrans7.ltrans.o
                                                  build/obj/hal_usb.o (symbol from plugin)
usb_lld_clear_out                                 /tmp/cceRjJvB.ltrans5.ltrans.o
                                                  build/obj/hal_usb_lld.o (symbol from plugin)
                                                  /tmp/cceRjJvB.ltrans7.ltrans.o
                                                  build/obj/hal_usb.o (symbol from plugin)
usb_lld_disable_endpoints                         /tmp/cceRjJvB.ltrans6.ltrans.o
                                                  build/obj/hal_usb_lld.o (symbol from plugin)
                                                  /tmp/cceRjJvB.ltrans7.ltrans.o
                                                  build/obj/hal_usb.o (symbol from plugin)
usb_lld_get_status_in                             /tmp/cceRjJvB.ltrans6.ltrans.o
                                                  build/obj/hal_usb_lld.o (symbol from plugin)
                                                  /tmp/cceRjJvB.ltrans7.ltrans.o
                                                  build/obj/hal_usb.o (symbol from plugin)
usb_lld_get_status_out                            /tmp/cceRjJvB.ltrans6.ltrans.o
                                                  build/obj/hal_usb_lld.o (symbol from plugin)
                                                  /tmp/cceRjJvB.ltrans7.ltrans.o
                                                  build/obj/hal_usb.o (symbol from plugin)
usb_lld_init                                      /tmp/cceRjJvB.ltrans6.ltrans.o
                                                  build/obj/hal_usb_lld.o (symbol from plugin)
                                                  /tmp/cceRjJvB.ltrans7.ltrans.o
                                                  build/obj/hal_usb.o (symbol from plugin)
usb_lld_init_endpoint                             /tmp/cceRjJvB.ltrans6.ltrans.o
                                                  build/obj/hal_usb_lld.o (symbol from plugin)
                                                  /tmp/cceRjJvB.ltrans7.ltrans.o
                                                  build/obj/hal_usb.o (symbol from plugin)
usb_lld_read_setup                                /tmp/cceRjJvB.ltrans6.ltrans.o
                                                  build/obj/hal_usb_lld.o (symbol from plugin)
                                                  /tmp/cceRjJvB.ltrans7.ltrans.o
                                                  build/obj/hal_usb.o (symbol from plugin)
usb_lld_reset                                     /tmp/cceRjJvB.ltrans6.ltrans.o
                                                  build/obj/hal_usb_lld.o (symbol from plugin)
                                                  /tmp/cceRjJvB.ltrans7.ltrans.o
                                                  build/obj/hal_usb.o (symbol from plugin)
usb_lld_set_address                               /tmp/cceRjJvB.ltrans6.ltrans.o
                                                  build/obj/hal_usb_lld.o (symbol from plugin)
                                                  /tmp/cceRjJvB.ltrans7.ltrans.o
                                                  build/obj/hal_usb.o (symbol from plugin)
usb_lld_stall_in                                  /tmp/cceRjJvB.ltrans5.ltrans.o
                                                  build/obj/hal_usb_lld.o (symbol from plugin)
                                                  /tmp/cceRjJvB.ltrans7.ltrans.o
                                                  build/obj/hal_usb.o (symbol from plugin)
usb_lld_stall_out                                 /tmp/cceRjJvB.ltrans5.ltrans.o
                                                  build/obj/hal_usb_lld.o (symbol from plugin)
                                                  /tmp/cceRjJvB.ltrans7.ltrans.o
                                                  build/obj/hal_usb.o (symbol from plugin)
usb_lld_start                                     /tmp/cceRjJvB.ltrans6.ltrans.o
                                                  build/obj/hal_usb_lld.o (symbol from plugin)
                                                  /tmp/cceRjJvB.ltrans7.ltrans.o
                                                  build/obj/hal_usb.o (symbol from plugin)
usb_lld_start_in                                  /tmp/cceRjJvB.ltrans5.ltrans.o
                                                  build/obj/hal_usb_lld.o (symbol from plugin)
                                                  /tmp/cceRjJvB.ltrans7.ltrans.o
                                                  /tmp/cceRjJvB.ltrans6.ltrans.o
                                                  build/obj/hal_usb.o (symbol from plugin)
usb_lld_start_out                                 /tmp/cceRjJvB.ltrans6.ltrans.o
                                                  build/obj/hal_usb_lld.o (symbol from plugin)
                                                  /tmp/cceRjJvB.ltrans7.ltrans.o
                                                  build/obj/hal_usb.o (symbol from plugin)
usb_lld_stop                                      /tmp/cceRjJvB.ltrans6.ltrans.o
                                                  build/obj/hal_usb_lld.o (symbol from plugin)
                                                  /tmp/cceRjJvB.ltrans7.ltrans.o
                                                  build/obj/hal_usb.o (symbol from plugin)
usbcfg                                            build/obj/usbcfg.o (symbol from plugin)
                                                  build/obj/main.o (symbol from plugin)
vmt.lto_priv.4                                    /tmp/cceRjJvB.ltrans0.ltrans.o
                                                  /tmp/cceRjJvB.ltrans8.ltrans.o
vmt.lto_priv.5                                    /tmp/cceRjJvB.ltrans0.ltrans.o
                                                  /tmp/cceRjJvB.ltrans8.ltrans.o
wait_for_start_signal                             build/obj/main.o (symbol from plugin)
zero_status.lto_priv.184                          /tmp/cceRjJvB.ltrans0.ltrans.o
                                                  /tmp/cceRjJvB.ltrans7.ltrans.o
